
os.elf:     file format elf32-i386


Disassembly of section .text:

00007c00 <check_a20-0xc>:
    7c00:	31 c0                	xor    %eax,%eax
    7c02:	8e d0                	mov    %eax,%ss
    7c04:	8e d8                	mov    %eax,%ds
    7c06:	bc 00 ec e9 76       	mov    $0x76e9ec00,%esp
    7c0b:	01                   	.byte 0x1

00007c0c <check_a20>:
    7c0c:	06                   	push   %es
    7c0d:	57                   	push   %edi
    7c0e:	1e                   	push   %ds
    7c0f:	56                   	push   %esi
    7c10:	fa                   	cli    
    7c11:	31 c0                	xor    %eax,%eax
    7c13:	8e c0                	mov    %eax,%es
    7c15:	f7 d0                	not    %eax
    7c17:	8e d8                	mov    %eax,%ds
    7c19:	bf 00 05 be 10       	mov    $0x10be0500,%edi
    7c1e:	05 26 8a 05 50       	add    $0x50058a26,%eax
    7c23:	3e 8a 04 50          	mov    %ds:(%eax,%edx,2),%al
    7c27:	26 c6 05 00 3e c6 04 	movb   $0xff,%es:0x4c63e00
    7c2e:	ff 
    7c2f:	26 80 3d ff 58 3e 88 	cmpb   $0x4,%es:0x883e58ff
    7c36:	04 
    7c37:	58                   	pop    %eax
    7c38:	26 88 05 b8 00 00 74 	mov    %al,%es:0x740000b8
    7c3f:	03                   	.byte 0x3
    7c40:	b8                   	.byte 0xb8
    7c41:	01 00                	add    %eax,(%eax)

00007c43 <check_a20_ret>:
    7c43:	5e                   	pop    %esi
    7c44:	1f                   	pop    %ds
    7c45:	5f                   	pop    %edi
    7c46:	07                   	pop    %es
    7c47:	c3                   	ret    

00007c48 <enable_a20>:
    7c48:	e8 c1 ff 3c 01       	call   13d7c0e <memoryDescriptor+0x139e23e>
    7c4d:	74 1e                	je     7c6d <enable_a20_return>

00007c4f <a20_bios>:
    7c4f:	b8 03 24 cd 15       	mov    $0x15cd2403,%eax
    7c54:	72 14                	jb     7c6a <a20_keyboard_controller>
    7c56:	80 fc 00             	cmp    $0x0,%ah
    7c59:	75 0f                	jne    7c6a <a20_keyboard_controller>
    7c5b:	b8 01 24 cd 15       	mov    $0x15cd2401,%eax
    7c60:	72 08                	jb     7c6a <a20_keyboard_controller>
    7c62:	80 fc 00             	cmp    $0x0,%ah
    7c65:	75 03                	jne    7c6a <a20_keyboard_controller>
    7c67:	b0 01                	mov    $0x1,%al
    7c69:	c3                   	ret    

00007c6a <a20_keyboard_controller>:
    7c6a:	b0 00                	mov    $0x0,%al
    7c6c:	c3                   	ret    

00007c6d <enable_a20_return>:
    7c6d:	c3                   	ret    
    7c6e:	90                   	nop
    7c6f:	90                   	nop

00007c70 <dap>:
    7c70:	10 00                	adc    %al,(%eax)
    7c72:	20 00                	and    %al,(%eax)
    7c74:	00 00                	add    %al,(%eax)
    7c76:	e0 07                	loopne 7c7f <dap+0xf>
    7c78:	01 00                	add    %eax,(%eax)
    7c7a:	00 00                	add    %al,(%eax)
    7c7c:	00 00                	add    %al,(%eax)
	...

00007c80 <loads2>:
    7c80:	b4 41                	mov    $0x41,%ah
    7c82:	bb aa 55 cd 13       	mov    $0x13cd55aa,%ebx
    7c87:	be f3 7c 72 4c       	mov    $0x4c727cf3,%esi
    7c8c:	be 70 7c b4 42       	mov    $0x42b47c70,%esi
    7c91:	cd 13                	int    $0x13
    7c93:	be e3 7c 72 40       	mov    $0x40727ce3,%esi
    7c98:	c3                   	ret    
    7c99:	b4 02                	mov    $0x2,%ah
    7c9b:	b0 0e                	mov    $0xe,%al
    7c9d:	b5 00                	mov    $0x0,%ch
    7c9f:	b1 02                	mov    $0x2,%cl
    7ca1:	b6 00                	mov    $0x0,%dh
    7ca3:	bb c0 07 8e c3       	mov    $0xc38e07c0,%ebx
    7ca8:	bb 00 02 cd 13       	mov    $0x13cd0200,%ebx
    7cad:	be e3 7c 72 26       	mov    $0x26727ce3,%esi
    7cb2:	be 02 7d e8 4e       	mov    $0x4ee87d02,%esi
    7cb7:	00 b4 02 b0 0e b5 01 	add    %dh,0x1b50eb0(%edx,%eax,1)
    7cbe:	b1 01                	mov    $0x1,%cl
    7cc0:	b6 00                	mov    $0x0,%dh
    7cc2:	bb c0 07 8e c3       	mov    $0xc38e07c0,%ebx
    7cc7:	bb 00 1e cd 13       	mov    $0x13cd1e00,%ebx
    7ccc:	be 04 7d e8 34       	mov    $0x34e87d04,%esi
    7cd1:	00 be e3 7c 72 01    	add    %bh,0x1727ce3(%esi)
    7cd7:	c3                   	ret    

00007cd8 <error>:
    7cd8:	e8 2b 00 c1 e8       	call   e8c17d08 <memoryDescriptor+0xe8bde338>
    7cdd:	08 e8                	or     %ch,%al
    7cdf:	67                   	addr16
	...

00007ce1 <error_halt>:
    7ce1:	eb fe                	jmp    7ce1 <error_halt>

00007ce3 <str1>:
    7ce3:	20 65 72             	and    %ah,0x72(%ebp)
    7ce6:	72 6f                	jb     7d57 <print_ax_loop+0x2>
    7ce8:	72 20                	jb     7d0a <print_str+0x4>
    7cea:	6c                   	insb   (%dx),%es:(%edi)
    7ceb:	6f                   	outsl  %ds:(%esi),(%dx)
    7cec:	61                   	popa   
    7ced:	64                   	fs
    7cee:	69                   	.byte 0x69
    7cef:	6e                   	outsb  %ds:(%esi),(%dx)
    7cf0:	67 20 00             	and    %al,(%bx,%si)

00007cf3 <no_ext>:
    7cf3:	20 6e 6f             	and    %ch,0x6f(%esi)
    7cf6:	20 65 78             	and    %ah,0x78(%ebp)
    7cf9:	74 65                	je     7d60 <print_ax_letter>
    7cfb:	6e                   	outsb  %ds:(%esi),(%dx)
    7cfc:	73 69                	jae    7d67 <print_ax_letter+0x7>
    7cfe:	6f                   	outsl  %ds:(%esi),(%dx)
    7cff:	6e                   	outsb  %ds:(%esi),(%dx)
    7d00:	20 00                	and    %al,(%eax)

00007d02 <str2>:
    7d02:	31 00                	xor    %eax,(%eax)

00007d04 <str3>:
    7d04:	32 00                	xor    (%eax),%al

00007d06 <print_str>:
    7d06:	b8 00 b8 8e c0       	mov    $0xc08eb800,%eax

00007d0b <print_str_loop>:
    7d0b:	ac                   	lods   %ds:(%esi),%al
    7d0c:	3c 00                	cmp    $0x0,%al
    7d0e:	74 05                	je     7d15 <print_str_ret>
    7d10:	e8 0e 00 eb f6       	call   f6eb7d23 <memoryDescriptor+0xf6e7e353>

00007d15 <print_str_ret>:
    7d15:	c3                   	ret    

00007d16 <print_char>:
    7d16:	53                   	push   %ebx
    7d17:	88 c3                	mov    %al,%bl
    7d19:	b8 00 b8 8e c0       	mov    $0xc08eb800,%eax
    7d1e:	88 d8                	mov    %bl,%al
    7d20:	5b                   	pop    %ebx

00007d21 <print_char_fast>:
    7d21:	53                   	push   %ebx
    7d22:	b4 0f                	mov    $0xf,%ah
    7d24:	89 c1                	mov    %eax,%ecx
    7d26:	0f b6 06             	movzbl (%esi),%eax
    7d29:	81 7d bb a0 00 f7 e3 	cmpl   $0xe3f700a0,-0x45(%ebp)
    7d30:	0f b6 1e             	movzbl (%esi),%ebx
    7d33:	80 7d d1 e3          	cmpb   $0xe3,-0x2f(%ebp)
    7d37:	bf 00 00 01 c7       	mov    $0xc7010000,%edi
    7d3c:	01 df                	add    %ebx,%edi
    7d3e:	89 c8                	mov    %ecx,%eax
    7d40:	ab                   	stos   %eax,%es:(%edi)
    7d41:	80 06 80             	addb   $0x80,(%esi)
    7d44:	7d 01                	jge    7d47 <print_char_fast+0x26>
    7d46:	5b                   	pop    %ebx
    7d47:	c3                   	ret    

00007d48 <print_ax>:
    7d48:	be 7d 7d 50 e8       	mov    $0xe8507d7d,%esi
    7d4d:	b7 ff                	mov    $0xff,%bh
    7d4f:	58                   	pop    %eax
    7d50:	89 c3                	mov    %eax,%ebx
    7d52:	b9                   	.byte 0xb9
    7d53:	04 00                	add    $0x0,%al

00007d55 <print_ax_loop>:
    7d55:	25 00 f0 c1 e8       	and    $0xe8c1f000,%eax
    7d5a:	0c 83                	or     $0x83,%al
    7d5c:	f8                   	clc    
    7d5d:	09 7e 08             	or     %edi,0x8(%esi)

00007d60 <print_ax_letter>:
    7d60:	83 e8 0a             	sub    $0xa,%eax
    7d63:	83 c0 41             	add    $0x41,%eax
    7d66:	eb 03                	jmp    7d6b <print_ax_print>

00007d68 <print_ax_number>:
    7d68:	83 c0 30             	add    $0x30,%eax

00007d6b <print_ax_print>:
    7d6b:	50                   	push   %eax
    7d6c:	51                   	push   %ecx
    7d6d:	e8 a6 ff 59 58       	call   585a7d18 <memoryDescriptor+0x5856e348>
    7d72:	c1 e3 04             	shl    $0x4,%ebx
    7d75:	89 d8                	mov    %ebx,%eax
    7d77:	83 e9 01             	sub    $0x1,%ecx
    7d7a:	75 d9                	jne    7d55 <print_ax_loop>
    7d7c:	c3                   	ret    

00007d7d <hex>:
    7d7d:	30 78 00             	xor    %bh,0x0(%eax)

00007d80 <posX>:
	...

00007d81 <posY>:
	...

00007d82 <start>:
    7d82:	52                   	push   %edx
    7d83:	be dc 7d e8 7d       	mov    $0x7de87ddc,%esi
    7d88:	ff                   	(bad)  
    7d89:	e8 bc fe 3c 01       	call   13d7c4a <memoryDescriptor+0x139e27a>
    7d8e:	75 12                	jne    7da2 <a20_fail>
    7d90:	be c8 7d e8 70       	mov    $0x70e87dc8,%esi
    7d95:	ff 5a e8             	lcall  *-0x18(%edx)
    7d98:	e6 fe                	out    %al,$0xfe
    7d9a:	be d4 7d e8 66       	mov    $0x66e87dd4,%esi
    7d9f:	ff                   	(bad)  
    7da0:	eb 5e                	jmp    7e00 <s2>

00007da2 <a20_fail>:
    7da2:	be e4 7d e8 5e       	mov    $0x5ee87de4,%esi
    7da7:	ff                   	.byte 0xff

00007da8 <s1_halt>:
    7da8:	eb fe                	jmp    7da8 <s1_halt>

00007daa <gdt>:
	...
    7db2:	ff                   	(bad)  
    7db3:	ff 00                	incl   (%eax)
    7db5:	00 00                	add    %al,(%eax)
    7db7:	9a cf 00 ff ff 00 00 	lcall  $0x0,$0xffff00cf
    7dbe:	00                   	.byte 0x0
    7dbf:	92                   	xchg   %eax,%edx
    7dc0:	cf                   	iret   
	...

00007dc2 <gdt_end>:
    7dc2:	17                   	pop    %ss
    7dc3:	00                   	.byte 0x0
    7dc4:	aa                   	stos   %al,%es:(%edi)
    7dc5:	7d 00                	jge    7dc7 <gdt_end+0x5>
	...

00007dc8 <a20>:
    7dc8:	20 61 32             	and    %ah,0x32(%ecx)
    7dcb:	30 20                	xor    %ah,(%eax)
    7dcd:	65 6e                	outsb  %gs:(%esi),(%dx)
    7dcf:	62 6c 64 20          	bound  %ebp,0x20(%esp,%eiz,2)
	...

00007dd4 <ls2>:
    7dd4:	20 4c 64 20          	and    %cl,0x20(%esp,%eiz,2)
    7dd8:	73 32                	jae    7e0c <enter_protected+0xa>
    7dda:	20 00                	and    %al,(%eax)

00007ddc <startStr>:
    7ddc:	20 53 74             	and    %dl,0x74(%ebx)
    7ddf:	61                   	popa   
    7de0:	72 74                	jb     7e56 <printp_str+0xa>
    7de2:	20 00                	and    %al,(%eax)

00007de4 <failedA20>:
    7de4:	20 46 61             	and    %al,0x61(%esi)
    7de7:	69 6c 20 61 32 30 20 	imul   $0x203032,0x61(%eax,%eiz,1),%ebp
    7dee:	00 
	...
    7dfb:	00 00                	add    %al,(%eax)
    7dfd:	00 55 aa             	add    %dl,-0x56(%ebp)

00007e00 <s2>:
    7e00:	eb 47                	jmp    7e49 <main>

00007e02 <enter_protected>:
    7e02:	fa                   	cli    
    7e03:	e8 14 00 0f 01       	call   10f7e1c <memoryDescriptor+0x10be44c>
    7e08:	16                   	push   %ss
    7e09:	c2 7d 0f             	ret    $0xf7d
    7e0c:	20 c0                	and    %al,%al
    7e0e:	66 83 c8 01          	or     $0x1,%ax
    7e12:	0f 22 c0             	mov    %eax,%cr0
    7e15:	ea                   	.byte 0xea
    7e16:	91                   	xchg   %eax,%ecx
    7e17:	7e 08                	jle    7e21 <disable_nmi+0x7>
	...

00007e1a <disable_nmi>:
    7e1a:	e4 70                	in     $0x70,%al
    7e1c:	0c 80                	or     $0x80,%al
    7e1e:	e6 70                	out    %al,$0x70
    7e20:	e4 71                	in     $0x71,%al
    7e22:	c3                   	ret    

00007e23 <enable_nmi>:
    7e23:	e4 70                	in     $0x70,%al
    7e25:	24 7f                	and    $0x7f,%al
    7e27:	e6 70                	out    %al,$0x70
    7e29:	e4 71                	in     $0x71,%al

00007e2b <enter_protected_halt>:
    7e2b:	eb fe                	jmp    7e2b <enter_protected_halt>

00007e2d <err_a20_not_activated>:
    7e2d:	45                   	inc    %ebp
    7e2e:	72 72                	jb     7ea2 <pmode_main+0x11>
    7e30:	6f                   	outsl  %ds:(%esi),(%dx)
    7e31:	72 3a                	jb     7e6d <printp_c+0x10>
    7e33:	20 41 32             	and    %al,0x32(%ecx)
    7e36:	30 20                	xor    %ah,(%eax)
    7e38:	69 73 20 6e 6f 74 20 	imul   $0x20746f6e,0x20(%ebx),%esi
    7e3f:	61                   	popa   
    7e40:	63 74 69 76          	arpl   %si,0x76(%ecx,%ebp,2)
    7e44:	61                   	popa   
    7e45:	74 65                	je     7eac <pmode_main+0x1b>
    7e47:	64                   	fs
	...

00007e49 <main>:
    7e49:	e8                   	.byte 0xe8
    7e4a:	b6 ff                	mov    $0xff,%dh

00007e4c <printp_str>:
    7e4c:	8b 06                	mov    (%esi),%eax
    7e4e:	8d 76 01             	lea    0x1(%esi),%esi
    7e51:	3c 00                	cmp    $0x0,%al
    7e53:	74 07                	je     7e5c <printp_str_done>
    7e55:	e8 03 00 00 00       	call   7e5d <printp_c>
    7e5a:	eb f0                	jmp    7e4c <printp_str>

00007e5c <printp_str_done>:
    7e5c:	c3                   	ret    

00007e5d <printp_c>:
    7e5d:	b4 0f                	mov    $0xf,%ah
    7e5f:	89 c1                	mov    %eax,%ecx
    7e61:	0f b6 05 90 7e 00 00 	movzbl 0x7e90,%eax
    7e68:	ba a0 00 00 00       	mov    $0xa0,%edx
    7e6d:	f7 e2                	mul    %edx
    7e6f:	0f b6 1d 8f 7e 00 00 	movzbl 0x7e8f,%ebx
    7e76:	d1 e3                	shl    %ebx
    7e78:	bf 00 80 0b 00       	mov    $0xb8000,%edi
    7e7d:	01 c7                	add    %eax,%edi
    7e7f:	01 df                	add    %ebx,%edi
    7e81:	89 c8                	mov    %ecx,%eax
    7e83:	3e 66 89 07          	mov    %ax,%ds:(%edi)
    7e87:	80 05 8f 7e 00 00 01 	addb   $0x1,0x7e8f
    7e8e:	c3                   	ret    

00007e8f <xpos>:
	...

00007e90 <ypos>:
	...

00007e91 <pmode_main>:
    7e91:	66 b8 10 00          	mov    $0x10,%ax
    7e95:	8e d8                	mov    %eax,%ds
    7e97:	8e c0                	mov    %eax,%es
    7e99:	8e e0                	mov    %eax,%fs
    7e9b:	8e e8                	mov    %eax,%gs
    7e9d:	8e d0                	mov    %eax,%ss
    7e9f:	bc 00 00 09 00       	mov    $0x90000,%esp
    7ea4:	b0 ff                	mov    $0xff,%al
    7ea6:	e6 a1                	out    %al,$0xa1
    7ea8:	e6 21                	out    %al,$0x21
    7eaa:	66 be b8 7e          	mov    $0x7eb8,%si
    7eae:	e8 99 ff ff ff       	call   7e4c <printp_str>
    7eb3:	e8 c8 03 00 00       	call   8280 <kernel_main>

00007eb8 <str>:
    7eb8:	53                   	push   %ebx
    7eb9:	75 63                	jne    7f1e <interrupt_handler_2+0xf>
    7ebb:	63 65 73             	arpl   %sp,0x73(%ebp)
    7ebe:	73 66                	jae    7f26 <interrupt_handler_2+0x17>
    7ec0:	75 6c                	jne    7f2e <interrupt_handler_3+0x6>
    7ec2:	6c                   	insb   (%dx),%es:(%edi)
    7ec3:	79 20                	jns    7ee5 <interrupt_handler_0+0x8>
    7ec5:	65 6e                	outsb  %gs:(%esi),(%dx)
    7ec7:	74 65                	je     7f2e <interrupt_handler_3+0x6>
    7ec9:	72 65                	jb     7f30 <interrupt_handler_3+0x8>
    7ecb:	64 20 70 72          	and    %dh,%fs:0x72(%eax)
    7ecf:	6f                   	outsl  %ds:(%esi),(%dx)
    7ed0:	74 65                	je     7f37 <interrupt_handler_3+0xf>
    7ed2:	63 74 65 64          	arpl   %si,0x64(%ebp,%eiz,2)
    7ed6:	20 6d 6f             	and    %ch,0x6f(%ebp)
    7ed9:	64 65 21 00          	fs and %eax,%gs:(%eax)

00007edd <interrupt_handler_0>:
    7edd:	50                   	push   %eax
    7ede:	89 e0                	mov    %esp,%eax
    7ee0:	83 c0 0c             	add    $0xc,%eax
    7ee3:	60                   	pusha  
    7ee4:	50                   	push   %eax
    7ee5:	6a 00                	push   $0x0
    7ee7:	fc                   	cld    
    7ee8:	e8 23 08 00 00       	call   8710 <exception_handler>
    7eed:	83 c4 08             	add    $0x8,%esp
    7ef0:	61                   	popa   
    7ef1:	58                   	pop    %eax
    7ef2:	83 c4 04             	add    $0x4,%esp
    7ef5:	cf                   	iret   

00007ef6 <interrupt_handler_1>:
    7ef6:	50                   	push   %eax
    7ef7:	89 e0                	mov    %esp,%eax
    7ef9:	83 c0 0c             	add    $0xc,%eax
    7efc:	60                   	pusha  
    7efd:	50                   	push   %eax
    7efe:	6a 01                	push   $0x1
    7f00:	fc                   	cld    
    7f01:	e8 0a 08 00 00       	call   8710 <exception_handler>
    7f06:	83 c4 08             	add    $0x8,%esp
    7f09:	61                   	popa   
    7f0a:	58                   	pop    %eax
    7f0b:	83 c4 04             	add    $0x4,%esp
    7f0e:	cf                   	iret   

00007f0f <interrupt_handler_2>:
    7f0f:	50                   	push   %eax
    7f10:	89 e0                	mov    %esp,%eax
    7f12:	83 c0 0c             	add    $0xc,%eax
    7f15:	60                   	pusha  
    7f16:	50                   	push   %eax
    7f17:	6a 02                	push   $0x2
    7f19:	fc                   	cld    
    7f1a:	e8 f1 07 00 00       	call   8710 <exception_handler>
    7f1f:	83 c4 08             	add    $0x8,%esp
    7f22:	61                   	popa   
    7f23:	58                   	pop    %eax
    7f24:	83 c4 04             	add    $0x4,%esp
    7f27:	cf                   	iret   

00007f28 <interrupt_handler_3>:
    7f28:	50                   	push   %eax
    7f29:	89 e0                	mov    %esp,%eax
    7f2b:	83 c0 0c             	add    $0xc,%eax
    7f2e:	60                   	pusha  
    7f2f:	50                   	push   %eax
    7f30:	6a 03                	push   $0x3
    7f32:	fc                   	cld    
    7f33:	e8 d8 07 00 00       	call   8710 <exception_handler>
    7f38:	83 c4 08             	add    $0x8,%esp
    7f3b:	61                   	popa   
    7f3c:	58                   	pop    %eax
    7f3d:	83 c4 04             	add    $0x4,%esp
    7f40:	cf                   	iret   

00007f41 <interrupt_handler_4>:
    7f41:	50                   	push   %eax
    7f42:	89 e0                	mov    %esp,%eax
    7f44:	83 c0 0c             	add    $0xc,%eax
    7f47:	60                   	pusha  
    7f48:	50                   	push   %eax
    7f49:	6a 04                	push   $0x4
    7f4b:	fc                   	cld    
    7f4c:	e8 bf 07 00 00       	call   8710 <exception_handler>
    7f51:	83 c4 08             	add    $0x8,%esp
    7f54:	61                   	popa   
    7f55:	58                   	pop    %eax
    7f56:	83 c4 04             	add    $0x4,%esp
    7f59:	cf                   	iret   

00007f5a <interrupt_handler_5>:
    7f5a:	50                   	push   %eax
    7f5b:	89 e0                	mov    %esp,%eax
    7f5d:	83 c0 0c             	add    $0xc,%eax
    7f60:	60                   	pusha  
    7f61:	50                   	push   %eax
    7f62:	6a 05                	push   $0x5
    7f64:	fc                   	cld    
    7f65:	e8 a6 07 00 00       	call   8710 <exception_handler>
    7f6a:	83 c4 08             	add    $0x8,%esp
    7f6d:	61                   	popa   
    7f6e:	58                   	pop    %eax
    7f6f:	83 c4 04             	add    $0x4,%esp
    7f72:	cf                   	iret   

00007f73 <interrupt_handler_6>:
    7f73:	50                   	push   %eax
    7f74:	89 e0                	mov    %esp,%eax
    7f76:	83 c0 0c             	add    $0xc,%eax
    7f79:	60                   	pusha  
    7f7a:	50                   	push   %eax
    7f7b:	6a 06                	push   $0x6
    7f7d:	fc                   	cld    
    7f7e:	e8 8d 07 00 00       	call   8710 <exception_handler>
    7f83:	83 c4 08             	add    $0x8,%esp
    7f86:	61                   	popa   
    7f87:	58                   	pop    %eax
    7f88:	83 c4 04             	add    $0x4,%esp
    7f8b:	cf                   	iret   

00007f8c <interrupt_handler_7>:
    7f8c:	50                   	push   %eax
    7f8d:	89 e0                	mov    %esp,%eax
    7f8f:	83 c0 0c             	add    $0xc,%eax
    7f92:	60                   	pusha  
    7f93:	50                   	push   %eax
    7f94:	6a 07                	push   $0x7
    7f96:	fc                   	cld    
    7f97:	e8 74 07 00 00       	call   8710 <exception_handler>
    7f9c:	83 c4 08             	add    $0x8,%esp
    7f9f:	61                   	popa   
    7fa0:	58                   	pop    %eax
    7fa1:	83 c4 04             	add    $0x4,%esp
    7fa4:	cf                   	iret   

00007fa5 <interrupt_handler_8>:
    7fa5:	50                   	push   %eax
    7fa6:	89 e0                	mov    %esp,%eax
    7fa8:	83 c0 0c             	add    $0xc,%eax
    7fab:	60                   	pusha  
    7fac:	50                   	push   %eax
    7fad:	6a 08                	push   $0x8
    7faf:	fc                   	cld    
    7fb0:	e8 5b 07 00 00       	call   8710 <exception_handler>
    7fb5:	83 c4 08             	add    $0x8,%esp
    7fb8:	61                   	popa   
    7fb9:	58                   	pop    %eax
    7fba:	83 c4 04             	add    $0x4,%esp
    7fbd:	cf                   	iret   

00007fbe <interrupt_handler_9>:
    7fbe:	50                   	push   %eax
    7fbf:	89 e0                	mov    %esp,%eax
    7fc1:	83 c0 0c             	add    $0xc,%eax
    7fc4:	60                   	pusha  
    7fc5:	50                   	push   %eax
    7fc6:	6a 09                	push   $0x9
    7fc8:	fc                   	cld    
    7fc9:	e8 42 07 00 00       	call   8710 <exception_handler>
    7fce:	83 c4 08             	add    $0x8,%esp
    7fd1:	61                   	popa   
    7fd2:	58                   	pop    %eax
    7fd3:	83 c4 04             	add    $0x4,%esp
    7fd6:	cf                   	iret   

00007fd7 <interrupt_handler_10>:
    7fd7:	50                   	push   %eax
    7fd8:	89 e0                	mov    %esp,%eax
    7fda:	83 c0 0c             	add    $0xc,%eax
    7fdd:	60                   	pusha  
    7fde:	50                   	push   %eax
    7fdf:	6a 0a                	push   $0xa
    7fe1:	fc                   	cld    
    7fe2:	e8 29 07 00 00       	call   8710 <exception_handler>
    7fe7:	83 c4 08             	add    $0x8,%esp
    7fea:	61                   	popa   
    7feb:	58                   	pop    %eax
    7fec:	83 c4 04             	add    $0x4,%esp
    7fef:	cf                   	iret   

00007ff0 <interrupt_handler_11>:
    7ff0:	50                   	push   %eax
    7ff1:	89 e0                	mov    %esp,%eax
    7ff3:	83 c0 0c             	add    $0xc,%eax
    7ff6:	60                   	pusha  
    7ff7:	50                   	push   %eax
    7ff8:	6a 0b                	push   $0xb
    7ffa:	fc                   	cld    
    7ffb:	e8 10 07 00 00       	call   8710 <exception_handler>
    8000:	83 c4 08             	add    $0x8,%esp
    8003:	61                   	popa   
    8004:	58                   	pop    %eax
    8005:	83 c4 04             	add    $0x4,%esp
    8008:	cf                   	iret   

00008009 <interrupt_handler_12>:
    8009:	50                   	push   %eax
    800a:	89 e0                	mov    %esp,%eax
    800c:	83 c0 0c             	add    $0xc,%eax
    800f:	60                   	pusha  
    8010:	50                   	push   %eax
    8011:	6a 0c                	push   $0xc
    8013:	fc                   	cld    
    8014:	e8 f7 06 00 00       	call   8710 <exception_handler>
    8019:	83 c4 08             	add    $0x8,%esp
    801c:	61                   	popa   
    801d:	58                   	pop    %eax
    801e:	83 c4 04             	add    $0x4,%esp
    8021:	cf                   	iret   

00008022 <interrupt_handler_13>:
    8022:	50                   	push   %eax
    8023:	89 e0                	mov    %esp,%eax
    8025:	83 c0 0c             	add    $0xc,%eax
    8028:	60                   	pusha  
    8029:	50                   	push   %eax
    802a:	6a 0d                	push   $0xd
    802c:	fc                   	cld    
    802d:	e8 de 06 00 00       	call   8710 <exception_handler>
    8032:	83 c4 08             	add    $0x8,%esp
    8035:	61                   	popa   
    8036:	58                   	pop    %eax
    8037:	83 c4 04             	add    $0x4,%esp
    803a:	cf                   	iret   

0000803b <interrupt_handler_14>:
    803b:	50                   	push   %eax
    803c:	89 e0                	mov    %esp,%eax
    803e:	83 c0 0c             	add    $0xc,%eax
    8041:	60                   	pusha  
    8042:	50                   	push   %eax
    8043:	6a 0e                	push   $0xe
    8045:	fc                   	cld    
    8046:	e8 c5 06 00 00       	call   8710 <exception_handler>
    804b:	83 c4 08             	add    $0x8,%esp
    804e:	61                   	popa   
    804f:	58                   	pop    %eax
    8050:	83 c4 04             	add    $0x4,%esp
    8053:	cf                   	iret   

00008054 <interrupt_handler_15>:
    8054:	50                   	push   %eax
    8055:	89 e0                	mov    %esp,%eax
    8057:	83 c0 0c             	add    $0xc,%eax
    805a:	60                   	pusha  
    805b:	50                   	push   %eax
    805c:	6a 0f                	push   $0xf
    805e:	fc                   	cld    
    805f:	e8 ac 06 00 00       	call   8710 <exception_handler>
    8064:	83 c4 08             	add    $0x8,%esp
    8067:	61                   	popa   
    8068:	58                   	pop    %eax
    8069:	83 c4 04             	add    $0x4,%esp
    806c:	cf                   	iret   

0000806d <interrupt_handler_16>:
    806d:	50                   	push   %eax
    806e:	89 e0                	mov    %esp,%eax
    8070:	83 c0 0c             	add    $0xc,%eax
    8073:	60                   	pusha  
    8074:	50                   	push   %eax
    8075:	6a 10                	push   $0x10
    8077:	fc                   	cld    
    8078:	e8 93 06 00 00       	call   8710 <exception_handler>
    807d:	83 c4 08             	add    $0x8,%esp
    8080:	61                   	popa   
    8081:	58                   	pop    %eax
    8082:	83 c4 04             	add    $0x4,%esp
    8085:	cf                   	iret   

00008086 <interrupt_handler_17>:
    8086:	50                   	push   %eax
    8087:	89 e0                	mov    %esp,%eax
    8089:	83 c0 0c             	add    $0xc,%eax
    808c:	60                   	pusha  
    808d:	50                   	push   %eax
    808e:	6a 11                	push   $0x11
    8090:	fc                   	cld    
    8091:	e8 7a 06 00 00       	call   8710 <exception_handler>
    8096:	83 c4 08             	add    $0x8,%esp
    8099:	61                   	popa   
    809a:	58                   	pop    %eax
    809b:	83 c4 04             	add    $0x4,%esp
    809e:	cf                   	iret   

0000809f <interrupt_handler_18>:
    809f:	50                   	push   %eax
    80a0:	89 e0                	mov    %esp,%eax
    80a2:	83 c0 0c             	add    $0xc,%eax
    80a5:	60                   	pusha  
    80a6:	50                   	push   %eax
    80a7:	6a 12                	push   $0x12
    80a9:	fc                   	cld    
    80aa:	e8 61 06 00 00       	call   8710 <exception_handler>
    80af:	83 c4 08             	add    $0x8,%esp
    80b2:	61                   	popa   
    80b3:	58                   	pop    %eax
    80b4:	83 c4 04             	add    $0x4,%esp
    80b7:	cf                   	iret   

000080b8 <interrupt_handler_19>:
    80b8:	50                   	push   %eax
    80b9:	89 e0                	mov    %esp,%eax
    80bb:	83 c0 0c             	add    $0xc,%eax
    80be:	60                   	pusha  
    80bf:	50                   	push   %eax
    80c0:	6a 13                	push   $0x13
    80c2:	fc                   	cld    
    80c3:	e8 48 06 00 00       	call   8710 <exception_handler>
    80c8:	83 c4 08             	add    $0x8,%esp
    80cb:	61                   	popa   
    80cc:	58                   	pop    %eax
    80cd:	83 c4 04             	add    $0x4,%esp
    80d0:	cf                   	iret   

000080d1 <interrupt_handler_20>:
    80d1:	50                   	push   %eax
    80d2:	89 e0                	mov    %esp,%eax
    80d4:	83 c0 0c             	add    $0xc,%eax
    80d7:	60                   	pusha  
    80d8:	50                   	push   %eax
    80d9:	6a 14                	push   $0x14
    80db:	fc                   	cld    
    80dc:	e8 2f 06 00 00       	call   8710 <exception_handler>
    80e1:	83 c4 08             	add    $0x8,%esp
    80e4:	61                   	popa   
    80e5:	58                   	pop    %eax
    80e6:	83 c4 04             	add    $0x4,%esp
    80e9:	cf                   	iret   

000080ea <interrupt_handler_21>:
    80ea:	50                   	push   %eax
    80eb:	89 e0                	mov    %esp,%eax
    80ed:	83 c0 0c             	add    $0xc,%eax
    80f0:	60                   	pusha  
    80f1:	50                   	push   %eax
    80f2:	6a 15                	push   $0x15
    80f4:	fc                   	cld    
    80f5:	e8 16 06 00 00       	call   8710 <exception_handler>
    80fa:	83 c4 08             	add    $0x8,%esp
    80fd:	61                   	popa   
    80fe:	58                   	pop    %eax
    80ff:	83 c4 04             	add    $0x4,%esp
    8102:	cf                   	iret   

00008103 <interrupt_handler_22>:
    8103:	50                   	push   %eax
    8104:	89 e0                	mov    %esp,%eax
    8106:	83 c0 0c             	add    $0xc,%eax
    8109:	60                   	pusha  
    810a:	50                   	push   %eax
    810b:	6a 16                	push   $0x16
    810d:	fc                   	cld    
    810e:	e8 fd 05 00 00       	call   8710 <exception_handler>
    8113:	83 c4 08             	add    $0x8,%esp
    8116:	61                   	popa   
    8117:	58                   	pop    %eax
    8118:	83 c4 04             	add    $0x4,%esp
    811b:	cf                   	iret   

0000811c <interrupt_handler_23>:
    811c:	50                   	push   %eax
    811d:	89 e0                	mov    %esp,%eax
    811f:	83 c0 0c             	add    $0xc,%eax
    8122:	60                   	pusha  
    8123:	50                   	push   %eax
    8124:	6a 17                	push   $0x17
    8126:	fc                   	cld    
    8127:	e8 e4 05 00 00       	call   8710 <exception_handler>
    812c:	83 c4 08             	add    $0x8,%esp
    812f:	61                   	popa   
    8130:	58                   	pop    %eax
    8131:	83 c4 04             	add    $0x4,%esp
    8134:	cf                   	iret   

00008135 <interrupt_handler_24>:
    8135:	50                   	push   %eax
    8136:	89 e0                	mov    %esp,%eax
    8138:	83 c0 0c             	add    $0xc,%eax
    813b:	60                   	pusha  
    813c:	50                   	push   %eax
    813d:	6a 18                	push   $0x18
    813f:	fc                   	cld    
    8140:	e8 cb 05 00 00       	call   8710 <exception_handler>
    8145:	83 c4 08             	add    $0x8,%esp
    8148:	61                   	popa   
    8149:	58                   	pop    %eax
    814a:	83 c4 04             	add    $0x4,%esp
    814d:	cf                   	iret   

0000814e <interrupt_handler_25>:
    814e:	50                   	push   %eax
    814f:	89 e0                	mov    %esp,%eax
    8151:	83 c0 0c             	add    $0xc,%eax
    8154:	60                   	pusha  
    8155:	50                   	push   %eax
    8156:	6a 19                	push   $0x19
    8158:	fc                   	cld    
    8159:	e8 b2 05 00 00       	call   8710 <exception_handler>
    815e:	83 c4 08             	add    $0x8,%esp
    8161:	61                   	popa   
    8162:	58                   	pop    %eax
    8163:	83 c4 04             	add    $0x4,%esp
    8166:	cf                   	iret   

00008167 <interrupt_handler_26>:
    8167:	50                   	push   %eax
    8168:	89 e0                	mov    %esp,%eax
    816a:	83 c0 0c             	add    $0xc,%eax
    816d:	60                   	pusha  
    816e:	50                   	push   %eax
    816f:	6a 1a                	push   $0x1a
    8171:	fc                   	cld    
    8172:	e8 99 05 00 00       	call   8710 <exception_handler>
    8177:	83 c4 08             	add    $0x8,%esp
    817a:	61                   	popa   
    817b:	58                   	pop    %eax
    817c:	83 c4 04             	add    $0x4,%esp
    817f:	cf                   	iret   

00008180 <interrupt_handler_27>:
    8180:	50                   	push   %eax
    8181:	89 e0                	mov    %esp,%eax
    8183:	83 c0 0c             	add    $0xc,%eax
    8186:	60                   	pusha  
    8187:	50                   	push   %eax
    8188:	6a 1b                	push   $0x1b
    818a:	fc                   	cld    
    818b:	e8 80 05 00 00       	call   8710 <exception_handler>
    8190:	83 c4 08             	add    $0x8,%esp
    8193:	61                   	popa   
    8194:	58                   	pop    %eax
    8195:	83 c4 04             	add    $0x4,%esp
    8198:	cf                   	iret   

00008199 <interrupt_handler_28>:
    8199:	50                   	push   %eax
    819a:	89 e0                	mov    %esp,%eax
    819c:	83 c0 0c             	add    $0xc,%eax
    819f:	60                   	pusha  
    81a0:	50                   	push   %eax
    81a1:	6a 1c                	push   $0x1c
    81a3:	fc                   	cld    
    81a4:	e8 67 05 00 00       	call   8710 <exception_handler>
    81a9:	83 c4 08             	add    $0x8,%esp
    81ac:	61                   	popa   
    81ad:	58                   	pop    %eax
    81ae:	83 c4 04             	add    $0x4,%esp
    81b1:	cf                   	iret   

000081b2 <interrupt_handler_29>:
    81b2:	50                   	push   %eax
    81b3:	89 e0                	mov    %esp,%eax
    81b5:	83 c0 0c             	add    $0xc,%eax
    81b8:	60                   	pusha  
    81b9:	50                   	push   %eax
    81ba:	6a 1d                	push   $0x1d
    81bc:	fc                   	cld    
    81bd:	e8 4e 05 00 00       	call   8710 <exception_handler>
    81c2:	83 c4 08             	add    $0x8,%esp
    81c5:	61                   	popa   
    81c6:	58                   	pop    %eax
    81c7:	83 c4 04             	add    $0x4,%esp
    81ca:	cf                   	iret   

000081cb <interrupt_handler_30>:
    81cb:	50                   	push   %eax
    81cc:	89 e0                	mov    %esp,%eax
    81ce:	83 c0 0c             	add    $0xc,%eax
    81d1:	60                   	pusha  
    81d2:	50                   	push   %eax
    81d3:	6a 1e                	push   $0x1e
    81d5:	fc                   	cld    
    81d6:	e8 35 05 00 00       	call   8710 <exception_handler>
    81db:	83 c4 08             	add    $0x8,%esp
    81de:	61                   	popa   
    81df:	58                   	pop    %eax
    81e0:	83 c4 04             	add    $0x4,%esp
    81e3:	cf                   	iret   

000081e4 <interrupt_handler_31>:
    81e4:	50                   	push   %eax
    81e5:	89 e0                	mov    %esp,%eax
    81e7:	83 c0 0c             	add    $0xc,%eax
    81ea:	60                   	pusha  
    81eb:	50                   	push   %eax
    81ec:	6a 1f                	push   $0x1f
    81ee:	fc                   	cld    
    81ef:	e8 1c 05 00 00       	call   8710 <exception_handler>
    81f4:	83 c4 08             	add    $0x8,%esp
    81f7:	61                   	popa   
    81f8:	58                   	pop    %eax
    81f9:	83 c4 04             	add    $0x4,%esp
    81fc:	cf                   	iret   

000081fd <interrupt_addr_table>:
    81fd:	dd 7e 00             	fnstsw 0x0(%esi)
    8200:	00 f6                	add    %dh,%dh
    8202:	7e 00                	jle    8204 <interrupt_addr_table+0x7>
    8204:	00 0f                	add    %cl,(%edi)
    8206:	7f 00                	jg     8208 <interrupt_addr_table+0xb>
    8208:	00 28                	add    %ch,(%eax)
    820a:	7f 00                	jg     820c <interrupt_addr_table+0xf>
    820c:	00 41 7f             	add    %al,0x7f(%ecx)
    820f:	00 00                	add    %al,(%eax)
    8211:	5a                   	pop    %edx
    8212:	7f 00                	jg     8214 <interrupt_addr_table+0x17>
    8214:	00 73 7f             	add    %dh,0x7f(%ebx)
    8217:	00 00                	add    %al,(%eax)
    8219:	8c 7f 00             	mov    %?,0x0(%edi)
    821c:	00 a5 7f 00 00 be    	add    %ah,-0x41ffff81(%ebp)
    8222:	7f 00                	jg     8224 <interrupt_addr_table+0x27>
    8224:	00 d7                	add    %dl,%bh
    8226:	7f 00                	jg     8228 <interrupt_addr_table+0x2b>
    8228:	00 f0                	add    %dh,%al
    822a:	7f 00                	jg     822c <interrupt_addr_table+0x2f>
    822c:	00 09                	add    %cl,(%ecx)
    822e:	80 00 00             	addb   $0x0,(%eax)
    8231:	22 80 00 00 3b 80    	and    -0x7fc50000(%eax),%al
    8237:	00 00                	add    %al,(%eax)
    8239:	54                   	push   %esp
    823a:	80 00 00             	addb   $0x0,(%eax)
    823d:	6d                   	insl   (%dx),%es:(%edi)
    823e:	80 00 00             	addb   $0x0,(%eax)
    8241:	86 80 00 00 9f 80    	xchg   %al,-0x7f610000(%eax)
    8247:	00 00                	add    %al,(%eax)
    8249:	b8 80 00 00 d1       	mov    $0xd1000080,%eax
    824e:	80 00 00             	addb   $0x0,(%eax)
    8251:	ea 80 00 00 03 81 00 	ljmp   $0x81,$0x3000080
    8258:	00 1c 81             	add    %bl,(%ecx,%eax,4)
    825b:	00 00                	add    %al,(%eax)
    825d:	35 81 00 00 4e       	xor    $0x4e000081,%eax
    8262:	81 00 00 67 81 00    	addl   $0x816700,(%eax)
    8268:	00 80 81 00 00 99    	add    %al,-0x66ffff7f(%eax)
    826e:	81 00 00 b2 81 00    	addl   $0x81b200,(%eax)
    8274:	00 cb                	add    %cl,%bl
    8276:	81 00 00 e4 81 00    	addl   $0x81e400,(%eax)
    827c:	00 66 90             	add    %ah,-0x70(%esi)
    827f:	90                   	nop

00008280 <kernel_main>:
    8280:	55                   	push   %ebp
    8281:	89 e5                	mov    %esp,%ebp
    8283:	57                   	push   %edi
    8284:	56                   	push   %esi
    8285:	53                   	push   %ebx
    8286:	81 ec 3c 02 00 00    	sub    $0x23c,%esp
    828c:	e8 af 1d 00 00       	call   a040 <stdioinit>
    8291:	e8 5a 20 00 00       	call   a2f0 <stdlib_init>
    8296:	83 ec 0c             	sub    $0xc,%esp
    8299:	6a 0a                	push   $0xa
    829b:	e8 70 20 00 00       	call   a310 <malloc>
    82a0:	c7 04 24 0a 00 00 00 	movl   $0xa,(%esp)
    82a7:	89 c6                	mov    %eax,%esi
    82a9:	e8 62 20 00 00       	call   a310 <malloc>
    82ae:	c7 04 24 0a 00 00 00 	movl   $0xa,(%esp)
    82b5:	89 c3                	mov    %eax,%ebx
    82b7:	e8 54 20 00 00       	call   a310 <malloc>
    82bc:	83 c4 10             	add    $0x10,%esp
    82bf:	8d 4b 0a             	lea    0xa(%ebx),%ecx
    82c2:	89 c2                	mov    %eax,%edx
    82c4:	8d 46 0a             	lea    0xa(%esi),%eax
    82c7:	39 c3                	cmp    %eax,%ebx
    82c9:	73 1d                	jae    82e8 <kernel_main+0x68>
    82cb:	39 ce                	cmp    %ecx,%esi
    82cd:	73 19                	jae    82e8 <kernel_main+0x68>
    82cf:	83 ec 0c             	sub    $0xc,%esp
    82d2:	68 a4 ad 00 00       	push   $0xada4
    82d7:	e8 b4 1d 00 00       	call   a090 <printf>
    82dc:	83 c4 10             	add    $0x10,%esp
    82df:	eb fe                	jmp    82df <kernel_main+0x5f>
    82e1:	8d b4 26 00 00 00 00 	lea    0x0(%esi,%eiz,1),%esi
    82e8:	8d 7a 0a             	lea    0xa(%edx),%edi
    82eb:	39 ca                	cmp    %ecx,%edx
    82ed:	73 04                	jae    82f3 <kernel_main+0x73>
    82ef:	39 fb                	cmp    %edi,%ebx
    82f1:	72 dc                	jb     82cf <kernel_main+0x4f>
    82f3:	39 c2                	cmp    %eax,%edx
    82f5:	72 46                	jb     833d <kernel_main+0xbd>
    82f7:	83 ec 0c             	sub    $0xc,%esp
    82fa:	89 8d c0 fd ff ff    	mov    %ecx,-0x240(%ebp)
    8300:	89 95 c4 fd ff ff    	mov    %edx,-0x23c(%ebp)
    8306:	53                   	push   %ebx
    8307:	e8 64 22 00 00       	call   a570 <free>
    830c:	c7 04 24 0a 00 00 00 	movl   $0xa,(%esp)
    8313:	e8 f8 1f 00 00       	call   a310 <malloc>
    8318:	83 c4 10             	add    $0x10,%esp
    831b:	8b 95 c4 fd ff ff    	mov    -0x23c(%ebp),%edx
    8321:	8b 8d c0 fd ff ff    	mov    -0x240(%ebp),%ecx
    8327:	39 c3                	cmp    %eax,%ebx
    8329:	74 18                	je     8343 <kernel_main+0xc3>
    832b:	83 ec 0c             	sub    $0xc,%esp
    832e:	68 cc ad 00 00       	push   $0xadcc
    8333:	e8 58 1d 00 00       	call   a090 <printf>
    8338:	83 c4 10             	add    $0x10,%esp
    833b:	eb fe                	jmp    833b <kernel_main+0xbb>
    833d:	39 fe                	cmp    %edi,%esi
    833f:	72 8e                	jb     82cf <kernel_main+0x4f>
    8341:	eb b4                	jmp    82f7 <kernel_main+0x77>
    8343:	83 ec 0c             	sub    $0xc,%esp
    8346:	89 8d c4 fd ff ff    	mov    %ecx,-0x23c(%ebp)
    834c:	89 95 c0 fd ff ff    	mov    %edx,-0x240(%ebp)
    8352:	53                   	push   %ebx
    8353:	e8 18 22 00 00       	call   a570 <free>
    8358:	c7 04 24 01 00 00 00 	movl   $0x1,(%esp)
    835f:	e8 ac 1f 00 00       	call   a310 <malloc>
    8364:	c7 04 24 01 00 00 00 	movl   $0x1,(%esp)
    836b:	89 c7                	mov    %eax,%edi
    836d:	e8 9e 1f 00 00       	call   a310 <malloc>
    8372:	8b 8d c4 fd ff ff    	mov    -0x23c(%ebp),%ecx
    8378:	83 c4 10             	add    $0x10,%esp
    837b:	89 c2                	mov    %eax,%edx
    837d:	39 cf                	cmp    %ecx,%edi
    837f:	73 68                	jae    83e9 <kernel_main+0x169>
    8381:	8d 47 01             	lea    0x1(%edi),%eax
    8384:	39 c3                	cmp    %eax,%ebx
    8386:	73 61                	jae    83e9 <kernel_main+0x169>
    8388:	39 ca                	cmp    %ecx,%edx
    838a:	73 5d                	jae    83e9 <kernel_main+0x169>
    838c:	8d 42 01             	lea    0x1(%edx),%eax
    838f:	89 95 c4 fd ff ff    	mov    %edx,-0x23c(%ebp)
    8395:	39 c3                	cmp    %eax,%ebx
    8397:	73 50                	jae    83e9 <kernel_main+0x169>
    8399:	83 ec 0c             	sub    $0xc,%esp
    839c:	56                   	push   %esi
    839d:	e8 ce 21 00 00       	call   a570 <free>
    83a2:	8b 95 c0 fd ff ff    	mov    -0x240(%ebp),%edx
    83a8:	89 14 24             	mov    %edx,(%esp)
    83ab:	e8 c0 21 00 00       	call   a570 <free>
    83b0:	89 3c 24             	mov    %edi,(%esp)
    83b3:	e8 b8 21 00 00       	call   a570 <free>
    83b8:	5a                   	pop    %edx
    83b9:	ff b5 c4 fd ff ff    	push   -0x23c(%ebp)
    83bf:	e8 ac 21 00 00       	call   a570 <free>
    83c4:	c7 04 24 0a 00 00 00 	movl   $0xa,(%esp)
    83cb:	e8 40 1f 00 00       	call   a310 <malloc>
    83d0:	83 c4 10             	add    $0x10,%esp
    83d3:	39 c6                	cmp    %eax,%esi
    83d5:	74 24                	je     83fb <kernel_main+0x17b>
    83d7:	83 ec 0c             	sub    $0xc,%esp
    83da:	68 34 ae 00 00       	push   $0xae34
    83df:	e8 ac 1c 00 00       	call   a090 <printf>
    83e4:	83 c4 10             	add    $0x10,%esp
    83e7:	eb fe                	jmp    83e7 <kernel_main+0x167>
    83e9:	83 ec 0c             	sub    $0xc,%esp
    83ec:	68 00 ae 00 00       	push   $0xae00
    83f1:	e8 9a 1c 00 00       	call   a090 <printf>
    83f6:	83 c4 10             	add    $0x10,%esp
    83f9:	eb fe                	jmp    83f9 <kernel_main+0x179>
    83fb:	83 ec 0c             	sub    $0xc,%esp
    83fe:	56                   	push   %esi
    83ff:	e8 6c 21 00 00       	call   a570 <free>
    8404:	c7 04 24 2f b2 00 00 	movl   $0xb22f,(%esp)
    840b:	e8 80 1c 00 00       	call   a090 <printf>
    8410:	83 c4 0c             	add    $0xc,%esp
    8413:	6a 00                	push   $0x0
    8415:	68 00 01 00 00       	push   $0x100
    841a:	6a 0a                	push   $0xa
    841c:	e8 3f 1f 00 00       	call   a360 <malloc_constrained>
    8421:	83 c4 10             	add    $0x10,%esp
    8424:	89 c3                	mov    %eax,%ebx
    8426:	89 85 c4 fd ff ff    	mov    %eax,-0x23c(%ebp)
    842c:	81 e3 ff 00 00 00    	and    $0xff,%ebx
    8432:	89 9d c0 fd ff ff    	mov    %ebx,-0x240(%ebp)
    8438:	74 12                	je     844c <kernel_main+0x1cc>
    843a:	83 ec 0c             	sub    $0xc,%esp
    843d:	68 68 ae 00 00       	push   $0xae68
    8442:	e8 49 1c 00 00       	call   a090 <printf>
    8447:	83 c4 10             	add    $0x10,%esp
    844a:	eb fe                	jmp    844a <kernel_main+0x1ca>
    844c:	83 ec 0c             	sub    $0xc,%esp
    844f:	6a 01                	push   $0x1
    8451:	e8 ba 1e 00 00       	call   a310 <malloc>
    8456:	83 c4 10             	add    $0x10,%esp
    8459:	89 c7                	mov    %eax,%edi
    845b:	39 85 c4 fd ff ff    	cmp    %eax,-0x23c(%ebp)
    8461:	73 12                	jae    8475 <kernel_main+0x1f5>
    8463:	83 ec 0c             	sub    $0xc,%esp
    8466:	68 9c ae 00 00       	push   $0xae9c
    846b:	e8 20 1c 00 00       	call   a090 <printf>
    8470:	83 c4 10             	add    $0x10,%esp
    8473:	eb fe                	jmp    8473 <kernel_main+0x1f3>
    8475:	50                   	push   %eax
    8476:	68 00 10 00 00       	push   $0x1000
    847b:	6a 01                	push   $0x1
    847d:	68 00 10 00 00       	push   $0x1000
    8482:	e8 d9 1e 00 00       	call   a360 <malloc_constrained>
    8487:	83 c4 10             	add    $0x10,%esp
    848a:	89 c6                	mov    %eax,%esi
    848c:	85 c0                	test   %eax,%eax
    848e:	74 1f                	je     84af <kernel_main+0x22f>
    8490:	99                   	cltd   
    8491:	89 c1                	mov    %eax,%ecx
    8493:	89 d3                	mov    %edx,%ebx
    8495:	0f ac d9 0c          	shrd   $0xc,%ebx,%ecx
    8499:	c1 eb 0c             	shr    $0xc,%ebx
    849c:	05 ff 0f 00 00       	add    $0xfff,%eax
    84a1:	83 d2 00             	adc    $0x0,%edx
    84a4:	0f ac d0 0c          	shrd   $0xc,%edx,%eax
    84a8:	c1 ea 0c             	shr    $0xc,%edx
    84ab:	39 d3                	cmp    %edx,%ebx
    84ad:	74 12                	je     84c1 <kernel_main+0x241>
    84af:	51                   	push   %ecx
    84b0:	51                   	push   %ecx
    84b1:	56                   	push   %esi
    84b2:	68 dc ae 00 00       	push   $0xaedc
    84b7:	e8 d4 1b 00 00       	call   a090 <printf>
    84bc:	83 c4 10             	add    $0x10,%esp
    84bf:	eb fe                	jmp    84bf <kernel_main+0x23f>
    84c1:	39 c1                	cmp    %eax,%ecx
    84c3:	75 ea                	jne    84af <kernel_main+0x22f>
    84c5:	83 ec 0c             	sub    $0xc,%esp
    84c8:	ff b5 c4 fd ff ff    	push   -0x23c(%ebp)
    84ce:	e8 9d 20 00 00       	call   a570 <free>
    84d3:	89 3c 24             	mov    %edi,(%esp)
    84d6:	e8 95 20 00 00       	call   a570 <free>
    84db:	89 34 24             	mov    %esi,(%esp)
    84de:	e8 8d 20 00 00       	call   a570 <free>
    84e3:	83 c4 0c             	add    $0xc,%esp
    84e6:	6a 0a                	push   $0xa
    84e8:	6a 02                	push   $0x2
    84ea:	6a 0a                	push   $0xa
    84ec:	e8 6f 1e 00 00       	call   a360 <malloc_constrained>
    84f1:	83 c4 0c             	add    $0xc,%esp
    84f4:	6a 0a                	push   $0xa
    84f6:	89 c6                	mov    %eax,%esi
    84f8:	6a 03                	push   $0x3
    84fa:	6a 07                	push   $0x7
    84fc:	e8 5f 1e 00 00       	call   a360 <malloc_constrained>
    8501:	83 c4 0c             	add    $0xc,%esp
    8504:	6a 0a                	push   $0xa
    8506:	89 c3                	mov    %eax,%ebx
    8508:	6a 03                	push   $0x3
    850a:	6a 0a                	push   $0xa
    850c:	e8 4f 1e 00 00       	call   a360 <malloc_constrained>
    8511:	83 c4 10             	add    $0x10,%esp
    8514:	85 f6                	test   %esi,%esi
    8516:	0f 94 c2             	sete   %dl
    8519:	85 db                	test   %ebx,%ebx
    851b:	0f 94 c1             	sete   %cl
    851e:	08 ca                	or     %cl,%dl
    8520:	75 04                	jne    8526 <kernel_main+0x2a6>
    8522:	85 c0                	test   %eax,%eax
    8524:	74 12                	je     8538 <kernel_main+0x2b8>
    8526:	83 ec 0c             	sub    $0xc,%esp
    8529:	68 1c af 00 00       	push   $0xaf1c
    852e:	e8 5d 1b 00 00       	call   a090 <printf>
    8533:	83 c4 10             	add    $0x10,%esp
    8536:	eb fe                	jmp    8536 <kernel_main+0x2b6>
    8538:	83 ec 0c             	sub    $0xc,%esp
    853b:	56                   	push   %esi
    853c:	e8 2f 20 00 00       	call   a570 <free>
    8541:	89 1c 24             	mov    %ebx,(%esp)
    8544:	e8 27 20 00 00       	call   a570 <free>
    8549:	31 c0                	xor    %eax,%eax
    854b:	89 04 24             	mov    %eax,(%esp)
    854e:	e8 1d 20 00 00       	call   a570 <free>
    8553:	c7 04 24 64 af 00 00 	movl   $0xaf64,(%esp)
    855a:	e8 31 1b 00 00       	call   a090 <printf>
    855f:	c7 04 24 2c b7 00 00 	movl   $0xb72c,(%esp)
    8566:	e8 25 1b 00 00       	call   a090 <printf>
    856b:	e8 e0 01 00 00       	call   8750 <interruptDescriptorTableInit>
    8570:	e8 ab 02 00 00       	call   8820 <apic_isPresent>
    8575:	5a                   	pop    %edx
    8576:	59                   	pop    %ecx
    8577:	50                   	push   %eax
    8578:	68 45 b2 00 00       	push   $0xb245
    857d:	e8 0e 1b 00 00       	call   a090 <printf>
    8582:	8d 85 80 fe ff ff    	lea    -0x180(%ebp),%eax
    8588:	5b                   	pop    %ebx
    8589:	5e                   	pop    %esi
    858a:	6a 0a                	push   $0xa
    858c:	8d 9d ce fd ff ff    	lea    -0x232(%ebp),%ebx
    8592:	8d b5 00 fe ff ff    	lea    -0x200(%ebp),%esi
    8598:	50                   	push   %eax
    8599:	e8 72 03 00 00       	call   8910 <pci_getDevices>
    859e:	89 85 c4 fd ff ff    	mov    %eax,-0x23c(%ebp)
    85a4:	5f                   	pop    %edi
    85a5:	8d bd 82 fe ff ff    	lea    -0x17e(%ebp),%edi
    85ab:	5a                   	pop    %edx
    85ac:	50                   	push   %eax
    85ad:	68 57 b2 00 00       	push   $0xb257
    85b2:	e8 d9 1a 00 00       	call   a090 <printf>
    85b7:	83 c4 10             	add    $0x10,%esp
    85ba:	31 c0                	xor    %eax,%eax
    85bc:	eb 5f                	jmp    861d <kernel_main+0x39d>
    85be:	89 85 bc fd ff ff    	mov    %eax,-0x244(%ebp)
    85c4:	50                   	push   %eax
    85c5:	50                   	push   %eax
    85c6:	53                   	push   %ebx
    85c7:	57                   	push   %edi
    85c8:	e8 a3 04 00 00       	call   8a70 <pci_getClassName>
    85cd:	58                   	pop    %eax
    85ce:	5a                   	pop    %edx
    85cf:	56                   	push   %esi
    85d0:	57                   	push   %edi
    85d1:	e8 da 04 00 00       	call   8ab0 <pci_getSubclassName>
    85d6:	59                   	pop    %ecx
    85d7:	58                   	pop    %eax
    85d8:	8d 85 40 fe ff ff    	lea    -0x1c0(%ebp),%eax
    85de:	50                   	push   %eax
    85df:	57                   	push   %edi
    85e0:	83 c7 12             	add    $0x12,%edi
    85e3:	e8 78 05 00 00       	call   8b60 <pci_getProgIfName>
    85e8:	0f b6 57 f7          	movzbl -0x9(%edi),%edx
    85ec:	8d 85 40 fe ff ff    	lea    -0x1c0(%ebp),%eax
    85f2:	52                   	push   %edx
    85f3:	0f b6 57 f8          	movzbl -0x8(%edi),%edx
    85f7:	50                   	push   %eax
    85f8:	8b 85 bc fd ff ff    	mov    -0x244(%ebp),%eax
    85fe:	52                   	push   %edx
    85ff:	0f b6 57 f9          	movzbl -0x7(%edi),%edx
    8603:	56                   	push   %esi
    8604:	52                   	push   %edx
    8605:	53                   	push   %ebx
    8606:	50                   	push   %eax
    8607:	68 6d b2 00 00       	push   $0xb26d
    860c:	e8 7f 1a 00 00       	call   a090 <printf>
    8611:	8b 85 bc fd ff ff    	mov    -0x244(%ebp),%eax
    8617:	83 c4 30             	add    $0x30,%esp
    861a:	83 c0 01             	add    $0x1,%eax
    861d:	39 85 c4 fd ff ff    	cmp    %eax,-0x23c(%ebp)
    8623:	7f 99                	jg     85be <kernel_main+0x33e>
    8625:	8b 95 c0 fd ff ff    	mov    -0x240(%ebp),%edx
    862b:	8d 85 80 fe ff ff    	lea    -0x180(%ebp),%eax
    8631:	eb 06                	jmp    8639 <kernel_main+0x3b9>
    8633:	83 c2 01             	add    $0x1,%edx
    8636:	83 c0 12             	add    $0x12,%eax
    8639:	39 95 c4 fd ff ff    	cmp    %edx,-0x23c(%ebp)
    863f:	0f 8e a5 00 00 00    	jle    86ea <kernel_main+0x46a>
    8645:	80 78 0d 0c          	cmpb   $0xc,0xd(%eax)
    8649:	75 e8                	jne    8633 <kernel_main+0x3b3>
    864b:	80 78 0c 03          	cmpb   $0x3,0xc(%eax)
    864f:	75 e2                	jne    8633 <kernel_main+0x3b3>
    8651:	80 78 0b 30          	cmpb   $0x30,0xb(%eax)
    8655:	75 dc                	jne    8633 <kernel_main+0x3b3>
    8657:	52                   	push   %edx
    8658:	8d bd 40 fe ff ff    	lea    -0x1c0(%ebp),%edi
    865e:	52                   	push   %edx
    865f:	56                   	push   %esi
    8660:	50                   	push   %eax
    8661:	e8 7a 03 00 00       	call   89e0 <pci_getGeneralDevice>
    8666:	c7 04 24 8b b2 00 00 	movl   $0xb28b,(%esp)
    866d:	e8 1e 1a 00 00       	call   a090 <printf>
    8672:	b9 10 00 00 00       	mov    $0x10,%ecx
    8677:	8d 85 40 fe ff ff    	lea    -0x1c0(%ebp),%eax
    867d:	f3 a5                	rep movsl %ds:(%esi),%es:(%edi)
    867f:	59                   	pop    %ecx
    8680:	5e                   	pop    %esi
    8681:	53                   	push   %ebx
    8682:	50                   	push   %eax
    8683:	e8 98 05 00 00       	call   8c20 <xhcd_init>
    8688:	83 c4 10             	add    $0x10,%esp
    868b:	85 c0                	test   %eax,%eax
    868d:	75 6b                	jne    86fa <kernel_main+0x47a>
    868f:	83 ec 0c             	sub    $0xc,%esp
    8692:	68 a0 b2 00 00       	push   $0xb2a0
    8697:	e8 f4 19 00 00       	call   a090 <printf>
    869c:	83 c4 10             	add    $0x10,%esp
    869f:	83 ec 0c             	sub    $0xc,%esp
    86a2:	53                   	push   %ebx
    86a3:	e8 78 08 00 00       	call   8f20 <xhcd_checkForDeviceAttach>
    86a8:	83 c4 10             	add    $0x10,%esp
    86ab:	89 c6                	mov    %eax,%esi
    86ad:	83 f8 ff             	cmp    $0xffffffff,%eax
    86b0:	74 ed                	je     869f <kernel_main+0x41f>
    86b2:	51                   	push   %ecx
    86b3:	51                   	push   %ecx
    86b4:	50                   	push   %eax
    86b5:	68 b1 b2 00 00       	push   $0xb2b1
    86ba:	e8 d1 19 00 00       	call   a090 <printf>
    86bf:	5f                   	pop    %edi
    86c0:	58                   	pop    %eax
    86c1:	56                   	push   %esi
    86c2:	53                   	push   %ebx
    86c3:	e8 c8 08 00 00       	call   8f90 <xhcd_enable>
    86c8:	83 c4 10             	add    $0x10,%esp
    86cb:	85 c0                	test   %eax,%eax
    86cd:	74 2b                	je     86fa <kernel_main+0x47a>
    86cf:	83 ec 0c             	sub    $0xc,%esp
    86d2:	68 c7 b2 00 00       	push   $0xb2c7
    86d7:	e8 b4 19 00 00       	call   a090 <printf>
    86dc:	58                   	pop    %eax
    86dd:	5a                   	pop    %edx
    86de:	56                   	push   %esi
    86df:	53                   	push   %ebx
    86e0:	e8 cb 09 00 00       	call   90b0 <xhcd_initPort>
    86e5:	83 c4 10             	add    $0x10,%esp
    86e8:	eb 10                	jmp    86fa <kernel_main+0x47a>
    86ea:	83 ec 0c             	sub    $0xc,%esp
    86ed:	68 84 af 00 00       	push   $0xaf84
    86f2:	e8 99 19 00 00       	call   a090 <printf>
    86f7:	83 c4 10             	add    $0x10,%esp
    86fa:	83 ec 0c             	sub    $0xc,%esp
    86fd:	68 db b2 00 00       	push   $0xb2db
    8702:	e8 89 19 00 00       	call   a090 <printf>
    8707:	83 c4 10             	add    $0x10,%esp
    870a:	eb fe                	jmp    870a <kernel_main+0x48a>
    870c:	66 90                	xchg   %ax,%ax
    870e:	66 90                	xchg   %ax,%ax

00008710 <exception_handler>:
    8710:	55                   	push   %ebp
    8711:	89 e5                	mov    %esp,%ebp
    8713:	83 ec 10             	sub    $0x10,%esp
    8716:	a1 00 c0 00 00       	mov    0xc000,%eax
    871b:	8b 55 0c             	mov    0xc(%ebp),%edx
    871e:	83 c0 01             	add    $0x1,%eax
    8721:	ff 32                	push   (%edx)
    8723:	ff 72 04             	push   0x4(%edx)
    8726:	ff 72 08             	push   0x8(%edx)
    8729:	0f b6 55 08          	movzbl 0x8(%ebp),%edx
    872d:	a3 00 c0 00 00       	mov    %eax,0xc000
    8732:	52                   	push   %edx
    8733:	50                   	push   %eax
    8734:	68 e0 b2 00 00       	push   $0xb2e0
    8739:	e8 52 19 00 00       	call   a090 <printf>
    873e:	83 c4 20             	add    $0x20,%esp
    8741:	eb fe                	jmp    8741 <exception_handler+0x31>
    8743:	8d b4 26 00 00 00 00 	lea    0x0(%esi,%eiz,1),%esi
    874a:	8d b6 00 00 00 00    	lea    0x0(%esi),%esi

00008750 <interruptDescriptorTableInit>:
    8750:	55                   	push   %ebp
    8751:	b9 ff 07 00 00       	mov    $0x7ff,%ecx
    8756:	89 e5                	mov    %esp,%ebp
    8758:	83 ec 0c             	sub    $0xc,%esp
    875b:	66 89 0d 04 c0 00 00 	mov    %cx,0xc004
    8762:	c7 05 00 c0 00 00 00 	movl   $0x0,0xc000
    8769:	00 00 00 
    876c:	c7 05 06 c0 00 00 10 	movl   $0xc010,0xc006
    8773:	c0 00 00 
    8776:	68 ff 07 00 00       	push   $0x7ff
    877b:	6a 00                	push   $0x0
    877d:	68 10 c0 00 00       	push   $0xc010
    8782:	e8 09 1b 00 00       	call   a290 <memset>
    8787:	0f b7 0d c8 b5 00 00 	movzwl 0xb5c8,%ecx
    878e:	83 c4 10             	add    $0x10,%esp
    8791:	31 c0                	xor    %eax,%eax
    8793:	8d 74 26 00          	lea    0x0(%esi,%eiz,1),%esi
    8797:	90                   	nop
    8798:	8b 14 85 fd 81 00 00 	mov    0x81fd(,%eax,4),%edx
    879f:	66 89 0c c5 14 c0 00 	mov    %cx,0xc014(,%eax,8)
    87a6:	00 
    87a7:	66 89 14 c5 10 c0 00 	mov    %dx,0xc010(,%eax,8)
    87ae:	00 
    87af:	c1 ea 10             	shr    $0x10,%edx
    87b2:	66 89 14 c5 16 c0 00 	mov    %dx,0xc016(,%eax,8)
    87b9:	00 
    87ba:	ba 08 00 00 00       	mov    $0x8,%edx
    87bf:	66 89 14 c5 12 c0 00 	mov    %dx,0xc012(,%eax,8)
    87c6:	00 
    87c7:	83 c0 01             	add    $0x1,%eax
    87ca:	83 f8 20             	cmp    $0x20,%eax
    87cd:	75 c9                	jne    8798 <interruptDescriptorTableInit+0x48>
    87cf:	0f 01 1d 04 c0 00 00 	lidtl  0xc004
    87d6:	83 ec 0c             	sub    $0xc,%esp
    87d9:	68 fc b2 00 00       	push   $0xb2fc
    87de:	e8 ad 18 00 00       	call   a090 <printf>
    87e3:	c7 04 24 19 b3 00 00 	movl   $0xb319,(%esp)
    87ea:	e8 a1 18 00 00       	call   a090 <printf>
    87ef:	fb                   	sti    
    87f0:	c7 04 24 30 b3 00 00 	movl   $0xb330,(%esp)
    87f7:	e8 94 18 00 00       	call   a090 <printf>
    87fc:	83 c4 10             	add    $0x10,%esp
    87ff:	c9                   	leave  
    8800:	c3                   	ret    
    8801:	66 90                	xchg   %ax,%ax
    8803:	66 90                	xchg   %ax,%ax
    8805:	66 90                	xchg   %ax,%ax
    8807:	66 90                	xchg   %ax,%ax
    8809:	66 90                	xchg   %ax,%ax
    880b:	66 90                	xchg   %ax,%ax
    880d:	66 90                	xchg   %ax,%ax
    880f:	90                   	nop

00008810 <registersGetSS>:
    8810:	55                   	push   %ebp
    8811:	89 e5                	mov    %esp,%ebp
    8813:	8b 45 08             	mov    0x8(%ebp),%eax
    8816:	8c d2                	mov    %ss,%edx
    8818:	89 10                	mov    %edx,(%eax)
    881a:	5d                   	pop    %ebp
    881b:	c2 04 00             	ret    $0x4
    881e:	66 90                	xchg   %ax,%ax

00008820 <apic_isPresent>:
    8820:	b8 01 00 00 00       	mov    $0x1,%eax
    8825:	0f a2                	cpuid  
    8827:	89 c0                	mov    %eax,%eax
    8829:	c1 e8 09             	shr    $0x9,%eax
    882c:	83 e0 01             	and    $0x1,%eax
    882f:	c3                   	ret    

00008830 <pci_configWriteAddress>:
    8830:	55                   	push   %ebp
    8831:	ba f8 0c 00 00       	mov    $0xcf8,%edx
    8836:	89 e5                	mov    %esp,%ebp
    8838:	8b 45 08             	mov    0x8(%ebp),%eax
    883b:	ef                   	out    %eax,(%dx)
    883c:	5d                   	pop    %ebp
    883d:	c3                   	ret    
    883e:	66 90                	xchg   %ax,%ax

00008840 <pci_configWriteData>:
    8840:	55                   	push   %ebp
    8841:	ba fc 0c 00 00       	mov    $0xcfc,%edx
    8846:	89 e5                	mov    %esp,%ebp
    8848:	8b 45 08             	mov    0x8(%ebp),%eax
    884b:	ef                   	out    %eax,(%dx)
    884c:	5d                   	pop    %ebp
    884d:	c3                   	ret    
    884e:	66 90                	xchg   %ax,%ax

00008850 <pci_configWrite>:
    8850:	55                   	push   %ebp
    8851:	ba f8 0c 00 00       	mov    $0xcf8,%edx
    8856:	89 e5                	mov    %esp,%ebp
    8858:	8b 45 08             	mov    0x8(%ebp),%eax
    885b:	ef                   	out    %eax,(%dx)
    885c:	ba fc 0c 00 00       	mov    $0xcfc,%edx
    8861:	8b 45 0c             	mov    0xc(%ebp),%eax
    8864:	ef                   	out    %eax,(%dx)
    8865:	5d                   	pop    %ebp
    8866:	c3                   	ret    
    8867:	8d b4 26 00 00 00 00 	lea    0x0(%esi,%eiz,1),%esi
    886e:	66 90                	xchg   %ax,%ax

00008870 <pci_configRead>:
    8870:	ba fc 0c 00 00       	mov    $0xcfc,%edx
    8875:	ed                   	in     (%dx),%eax
    8876:	c3                   	ret    
    8877:	8d b4 26 00 00 00 00 	lea    0x0(%esi,%eiz,1),%esi
    887e:	66 90                	xchg   %ax,%ax

00008880 <pci_configReadAt>:
    8880:	55                   	push   %ebp
    8881:	ba f8 0c 00 00       	mov    $0xcf8,%edx
    8886:	89 e5                	mov    %esp,%ebp
    8888:	8b 45 08             	mov    0x8(%ebp),%eax
    888b:	ef                   	out    %eax,(%dx)
    888c:	ba fc 0c 00 00       	mov    $0xcfc,%edx
    8891:	ed                   	in     (%dx),%eax
    8892:	5d                   	pop    %ebp
    8893:	c3                   	ret    
    8894:	8d b4 26 00 00 00 00 	lea    0x0(%esi,%eiz,1),%esi
    889b:	8d 74 26 00          	lea    0x0(%esi,%eiz,1),%esi
    889f:	90                   	nop

000088a0 <pci_configReadRegister>:
    88a0:	55                   	push   %ebp
    88a1:	89 e5                	mov    %esp,%ebp
    88a3:	56                   	push   %esi
    88a4:	53                   	push   %ebx
    88a5:	8b 75 14             	mov    0x14(%ebp),%esi
    88a8:	8b 4d 08             	mov    0x8(%ebp),%ecx
    88ab:	8b 5d 0c             	mov    0xc(%ebp),%ebx
    88ae:	8b 45 10             	mov    0x10(%ebp),%eax
    88b1:	f7 c6 03 00 00 00    	test   $0x3,%esi
    88b7:	75 37                	jne    88f0 <pci_configReadRegister+0x50>
    88b9:	0f b6 c0             	movzbl %al,%eax
    88bc:	81 e6 fc 00 00 00    	and    $0xfc,%esi
    88c2:	0f b6 db             	movzbl %bl,%ebx
    88c5:	0f b6 c9             	movzbl %cl,%ecx
    88c8:	c1 e0 08             	shl    $0x8,%eax
    88cb:	c1 e3 0b             	shl    $0xb,%ebx
    88ce:	ba f8 0c 00 00       	mov    $0xcf8,%edx
    88d3:	09 f0                	or     %esi,%eax
    88d5:	c1 e1 10             	shl    $0x10,%ecx
    88d8:	09 d8                	or     %ebx,%eax
    88da:	09 c8                	or     %ecx,%eax
    88dc:	0d 00 00 00 80       	or     $0x80000000,%eax
    88e1:	ef                   	out    %eax,(%dx)
    88e2:	ba fc 0c 00 00       	mov    $0xcfc,%edx
    88e7:	ed                   	in     (%dx),%eax
    88e8:	8d 65 f8             	lea    -0x8(%ebp),%esp
    88eb:	5b                   	pop    %ebx
    88ec:	5e                   	pop    %esi
    88ed:	5d                   	pop    %ebp
    88ee:	c3                   	ret    
    88ef:	90                   	nop
    88f0:	83 ec 0c             	sub    $0xc,%esp
    88f3:	68 a8 af 00 00       	push   $0xafa8
    88f8:	e8 93 17 00 00       	call   a090 <printf>
    88fd:	83 c4 10             	add    $0x10,%esp
    8900:	8d 65 f8             	lea    -0x8(%ebp),%esp
    8903:	b8 ff ff ff ff       	mov    $0xffffffff,%eax
    8908:	5b                   	pop    %ebx
    8909:	5e                   	pop    %esi
    890a:	5d                   	pop    %ebp
    890b:	c3                   	ret    
    890c:	8d 74 26 00          	lea    0x0(%esi,%eiz,1),%esi

00008910 <pci_getDevices>:
    8910:	55                   	push   %ebp
    8911:	89 e5                	mov    %esp,%ebp
    8913:	57                   	push   %edi
    8914:	31 ff                	xor    %edi,%edi
    8916:	56                   	push   %esi
    8917:	31 f6                	xor    %esi,%esi
    8919:	53                   	push   %ebx
    891a:	83 ec 0c             	sub    $0xc,%esp
    891d:	89 f0                	mov    %esi,%eax
    891f:	89 75 e8             	mov    %esi,-0x18(%ebp)
    8922:	31 db                	xor    %ebx,%ebx
    8924:	88 45 ef             	mov    %al,-0x11(%ebp)
    8927:	89 f0                	mov    %esi,%eax
    8929:	c1 e0 10             	shl    $0x10,%eax
    892c:	89 45 f0             	mov    %eax,-0x10(%ebp)
    892f:	90                   	nop
    8930:	8b 45 f0             	mov    -0x10(%ebp),%eax
    8933:	89 d9                	mov    %ebx,%ecx
    8935:	ba f8 0c 00 00       	mov    $0xcf8,%edx
    893a:	c1 e1 0b             	shl    $0xb,%ecx
    893d:	09 c1                	or     %eax,%ecx
    893f:	89 c8                	mov    %ecx,%eax
    8941:	0d 00 00 00 80       	or     $0x80000000,%eax
    8946:	ef                   	out    %eax,(%dx)
    8947:	ba fc 0c 00 00       	mov    $0xcfc,%edx
    894c:	ed                   	in     (%dx),%eax
    894d:	83 f8 ff             	cmp    $0xffffffff,%eax
    8950:	74 5f                	je     89b1 <pci_getDevices+0xa1>
    8952:	8b 75 08             	mov    0x8(%ebp),%esi
    8955:	8d 14 ff             	lea    (%edi,%edi,8),%edx
    8958:	8d 34 56             	lea    (%esi,%edx,2),%esi
    895b:	ba f8 0c 00 00       	mov    $0xcf8,%edx
    8960:	89 46 02             	mov    %eax,0x2(%esi)
    8963:	89 c8                	mov    %ecx,%eax
    8965:	0d 04 00 00 80       	or     $0x80000004,%eax
    896a:	ef                   	out    %eax,(%dx)
    896b:	ba fc 0c 00 00       	mov    $0xcfc,%edx
    8970:	ed                   	in     (%dx),%eax
    8971:	89 46 06             	mov    %eax,0x6(%esi)
    8974:	89 c8                	mov    %ecx,%eax
    8976:	ba f8 0c 00 00       	mov    $0xcf8,%edx
    897b:	0d 08 00 00 80       	or     $0x80000008,%eax
    8980:	ef                   	out    %eax,(%dx)
    8981:	ba fc 0c 00 00       	mov    $0xcfc,%edx
    8986:	ed                   	in     (%dx),%eax
    8987:	89 46 0a             	mov    %eax,0xa(%esi)
    898a:	89 c8                	mov    %ecx,%eax
    898c:	ba f8 0c 00 00       	mov    $0xcf8,%edx
    8991:	0d 0c 00 00 80       	or     $0x8000000c,%eax
    8996:	ef                   	out    %eax,(%dx)
    8997:	ba fc 0c 00 00       	mov    $0xcfc,%edx
    899c:	ed                   	in     (%dx),%eax
    899d:	89 46 0e             	mov    %eax,0xe(%esi)
    89a0:	0f b6 45 ef          	movzbl -0x11(%ebp),%eax
    89a4:	83 c7 01             	add    $0x1,%edi
    89a7:	88 5e 01             	mov    %bl,0x1(%esi)
    89aa:	88 06                	mov    %al,(%esi)
    89ac:	3b 7d 0c             	cmp    0xc(%ebp),%edi
    89af:	7d 1e                	jge    89cf <pci_getDevices+0xbf>
    89b1:	83 c3 01             	add    $0x1,%ebx
    89b4:	83 fb 20             	cmp    $0x20,%ebx
    89b7:	0f 85 73 ff ff ff    	jne    8930 <pci_getDevices+0x20>
    89bd:	8b 75 e8             	mov    -0x18(%ebp),%esi
    89c0:	83 c6 01             	add    $0x1,%esi
    89c3:	81 fe ff 00 00 00    	cmp    $0xff,%esi
    89c9:	0f 85 4e ff ff ff    	jne    891d <pci_getDevices+0xd>
    89cf:	83 c4 0c             	add    $0xc,%esp
    89d2:	89 f8                	mov    %edi,%eax
    89d4:	5b                   	pop    %ebx
    89d5:	5e                   	pop    %esi
    89d6:	5f                   	pop    %edi
    89d7:	5d                   	pop    %ebp
    89d8:	c3                   	ret    
    89d9:	8d b4 26 00 00 00 00 	lea    0x0(%esi,%eiz,1),%esi

000089e0 <pci_getGeneralDevice>:
    89e0:	55                   	push   %ebp
    89e1:	89 e5                	mov    %esp,%ebp
    89e3:	57                   	push   %edi
    89e4:	56                   	push   %esi
    89e5:	53                   	push   %ebx
    89e6:	bb 10 00 00 00       	mov    $0x10,%ebx
    89eb:	83 ec 0c             	sub    $0xc,%esp
    89ee:	8b 7d 08             	mov    0x8(%ebp),%edi
    89f1:	8b 75 0c             	mov    0xc(%ebp),%esi
    89f4:	8b 47 02             	mov    0x2(%edi),%eax
    89f7:	89 06                	mov    %eax,(%esi)
    89f9:	8b 47 06             	mov    0x6(%edi),%eax
    89fc:	89 46 04             	mov    %eax,0x4(%esi)
    89ff:	8b 47 0a             	mov    0xa(%edi),%eax
    8a02:	89 46 08             	mov    %eax,0x8(%esi)
    8a05:	8b 47 0e             	mov    0xe(%edi),%eax
    8a08:	89 46 0c             	mov    %eax,0xc(%esi)
    8a0b:	8d 74 26 00          	lea    0x0(%esi,%eiz,1),%esi
    8a0f:	90                   	nop
    8a10:	0f b6 07             	movzbl (%edi),%eax
    8a13:	0f b6 57 01          	movzbl 0x1(%edi),%edx
    8a17:	c1 e0 10             	shl    $0x10,%eax
    8a1a:	c1 e2 0b             	shl    $0xb,%edx
    8a1d:	09 d0                	or     %edx,%eax
    8a1f:	ba f8 0c 00 00       	mov    $0xcf8,%edx
    8a24:	09 d8                	or     %ebx,%eax
    8a26:	0d 00 00 00 80       	or     $0x80000000,%eax
    8a2b:	ef                   	out    %eax,(%dx)
    8a2c:	ba fc 0c 00 00       	mov    $0xcfc,%edx
    8a31:	ed                   	in     (%dx),%eax
    8a32:	83 ec 08             	sub    $0x8,%esp
    8a35:	89 04 1e             	mov    %eax,(%esi,%ebx,1)
    8a38:	83 c3 04             	add    $0x4,%ebx
    8a3b:	50                   	push   %eax
    8a3c:	68 46 b3 00 00       	push   $0xb346
    8a41:	e8 4a 16 00 00       	call   a090 <printf>
    8a46:	83 c4 10             	add    $0x10,%esp
    8a49:	83 fb 40             	cmp    $0x40,%ebx
    8a4c:	75 c2                	jne    8a10 <pci_getGeneralDevice+0x30>
    8a4e:	c7 45 08 9e b2 00 00 	movl   $0xb29e,0x8(%ebp)
    8a55:	8d 65 f4             	lea    -0xc(%ebp),%esp
    8a58:	5b                   	pop    %ebx
    8a59:	5e                   	pop    %esi
    8a5a:	5f                   	pop    %edi
    8a5b:	5d                   	pop    %ebp
    8a5c:	e9 2f 16 00 00       	jmp    a090 <printf>
    8a61:	8d b4 26 00 00 00 00 	lea    0x0(%esi,%eiz,1),%esi
    8a68:	8d b4 26 00 00 00 00 	lea    0x0(%esi,%eiz,1),%esi
    8a6f:	90                   	nop

00008a70 <pci_getClassName>:
    8a70:	55                   	push   %ebp
    8a71:	b9 17 00 00 00       	mov    $0x17,%ecx
    8a76:	89 e5                	mov    %esp,%ebp
    8a78:	57                   	push   %edi
    8a79:	56                   	push   %esi
    8a7a:	8d 7d 9c             	lea    -0x64(%ebp),%edi
    8a7d:	be e0 b5 00 00       	mov    $0xb5e0,%esi
    8a82:	83 ec 60             	sub    $0x60,%esp
    8a85:	8b 55 08             	mov    0x8(%ebp),%edx
    8a88:	8b 45 0c             	mov    0xc(%ebp),%eax
    8a8b:	f3 a5                	rep movsl %ds:(%esi),%es:(%edi)
    8a8d:	0f b6 52 0b          	movzbl 0xb(%edx),%edx
    8a91:	8b 54 95 9c          	mov    -0x64(%ebp,%edx,4),%edx
    8a95:	89 45 08             	mov    %eax,0x8(%ebp)
    8a98:	89 55 0c             	mov    %edx,0xc(%ebp)
    8a9b:	83 c4 60             	add    $0x60,%esp
    8a9e:	5e                   	pop    %esi
    8a9f:	5f                   	pop    %edi
    8aa0:	5d                   	pop    %ebp
    8aa1:	e9 ea 1b 00 00       	jmp    a690 <strcpy>
    8aa6:	8d b4 26 00 00 00 00 	lea    0x0(%esi,%eiz,1),%esi
    8aad:	8d 76 00             	lea    0x0(%esi),%esi

00008ab0 <pci_getSubclassName>:
    8ab0:	55                   	push   %ebp
    8ab1:	89 e5                	mov    %esp,%ebp
    8ab3:	56                   	push   %esi
    8ab4:	53                   	push   %ebx
    8ab5:	83 ec 20             	sub    $0x20,%esp
    8ab8:	8b 45 08             	mov    0x8(%ebp),%eax
    8abb:	8b 5d 0c             	mov    0xc(%ebp),%ebx
    8abe:	80 78 0b 0c          	cmpb   $0xc,0xb(%eax)
    8ac2:	0f b6 50 0a          	movzbl 0xa(%eax),%edx
    8ac6:	75 68                	jne    8b30 <pci_getSubclassName+0x80>
    8ac8:	80 fa 09             	cmp    $0x9,%dl
    8acb:	77 1b                	ja     8ae8 <pci_getSubclassName+0x38>
    8acd:	c7 45 0c bc b4 00 00 	movl   $0xb4bc,0xc(%ebp)
    8ad4:	89 5d 08             	mov    %ebx,0x8(%ebp)
    8ad7:	8d 65 f8             	lea    -0x8(%ebp),%esp
    8ada:	5b                   	pop    %ebx
    8adb:	5e                   	pop    %esi
    8adc:	5d                   	pop    %ebp
    8add:	e9 ae 1b 00 00       	jmp    a690 <strcpy>
    8ae2:	8d b6 00 00 00 00    	lea    0x0(%esi),%esi
    8ae8:	83 ec 08             	sub    $0x8,%esp
    8aeb:	8d 45 e3             	lea    -0x1d(%ebp),%eax
    8aee:	c7 45 e3 49 6e 76 61 	movl   $0x61766e49,-0x1d(%ebp)
    8af5:	c7 45 e7 6c 69 64 20 	movl   $0x2064696c,-0x19(%ebp)
    8afc:	c7 45 eb 73 75 62 63 	movl   $0x63627573,-0x15(%ebp)
    8b03:	c7 45 ef 6c 61 73 73 	movl   $0x7373616c,-0x11(%ebp)
    8b0a:	c7 45 f3 43 6f 64 65 	movl   $0x65646f43,-0xd(%ebp)
    8b11:	c6 45 f7 00          	movb   $0x0,-0x9(%ebp)
    8b15:	50                   	push   %eax
    8b16:	53                   	push   %ebx
    8b17:	e8 74 1b 00 00       	call   a690 <strcpy>
    8b1c:	83 c4 10             	add    $0x10,%esp
    8b1f:	8d 65 f8             	lea    -0x8(%ebp),%esp
    8b22:	5b                   	pop    %ebx
    8b23:	5e                   	pop    %esi
    8b24:	5d                   	pop    %ebp
    8b25:	c3                   	ret    
    8b26:	8d b4 26 00 00 00 00 	lea    0x0(%esi,%eiz,1),%esi
    8b2d:	8d 76 00             	lea    0x0(%esi),%esi
    8b30:	83 ec 04             	sub    $0x4,%esp
    8b33:	8d 75 e3             	lea    -0x1d(%ebp),%esi
    8b36:	52                   	push   %edx
    8b37:	68 b9 b4 00 00       	push   $0xb4b9
    8b3c:	56                   	push   %esi
    8b3d:	e8 de 1c 00 00       	call   a820 <sprintf>
    8b42:	58                   	pop    %eax
    8b43:	5a                   	pop    %edx
    8b44:	56                   	push   %esi
    8b45:	53                   	push   %ebx
    8b46:	e8 45 1b 00 00       	call   a690 <strcpy>
    8b4b:	83 c4 10             	add    $0x10,%esp
    8b4e:	8d 65 f8             	lea    -0x8(%ebp),%esp
    8b51:	5b                   	pop    %ebx
    8b52:	5e                   	pop    %esi
    8b53:	5d                   	pop    %ebp
    8b54:	c3                   	ret    
    8b55:	8d b4 26 00 00 00 00 	lea    0x0(%esi,%eiz,1),%esi
    8b5c:	8d 74 26 00          	lea    0x0(%esi,%eiz,1),%esi

00008b60 <pci_getProgIfName>:
    8b60:	55                   	push   %ebp
    8b61:	89 e5                	mov    %esp,%ebp
    8b63:	56                   	push   %esi
    8b64:	53                   	push   %ebx
    8b65:	83 ec 30             	sub    $0x30,%esp
    8b68:	8b 45 08             	mov    0x8(%ebp),%eax
    8b6b:	8b 5d 0c             	mov    0xc(%ebp),%ebx
    8b6e:	80 78 0b 0c          	cmpb   $0xc,0xb(%eax)
    8b72:	0f b6 50 09          	movzbl 0x9(%eax),%edx
    8b76:	75 06                	jne    8b7e <pci_getProgIfName+0x1e>
    8b78:	80 78 0a 03          	cmpb   $0x3,0xa(%eax)
    8b7c:	74 2a                	je     8ba8 <pci_getProgIfName+0x48>
    8b7e:	83 ec 04             	sub    $0x4,%esp
    8b81:	8d 75 d4             	lea    -0x2c(%ebp),%esi
    8b84:	52                   	push   %edx
    8b85:	68 b9 b4 00 00       	push   $0xb4b9
    8b8a:	56                   	push   %esi
    8b8b:	e8 90 1c 00 00       	call   a820 <sprintf>
    8b90:	58                   	pop    %eax
    8b91:	5a                   	pop    %edx
    8b92:	56                   	push   %esi
    8b93:	53                   	push   %ebx
    8b94:	e8 f7 1a 00 00       	call   a690 <strcpy>
    8b99:	83 c4 10             	add    $0x10,%esp
    8b9c:	8d 65 f8             	lea    -0x8(%ebp),%esp
    8b9f:	5b                   	pop    %ebx
    8ba0:	5e                   	pop    %esi
    8ba1:	5d                   	pop    %ebp
    8ba2:	c3                   	ret    
    8ba3:	8d 74 26 00          	lea    0x0(%esi,%eiz,1),%esi
    8ba7:	90                   	nop
    8ba8:	80 fa 3f             	cmp    $0x3f,%dl
    8bab:	77 1b                	ja     8bc8 <pci_getProgIfName+0x68>
    8bad:	c7 45 0c bc b4 00 00 	movl   $0xb4bc,0xc(%ebp)
    8bb4:	89 5d 08             	mov    %ebx,0x8(%ebp)
    8bb7:	8d 65 f8             	lea    -0x8(%ebp),%esp
    8bba:	5b                   	pop    %ebx
    8bbb:	5e                   	pop    %esi
    8bbc:	5d                   	pop    %ebp
    8bbd:	e9 ce 1a 00 00       	jmp    a690 <strcpy>
    8bc2:	8d b6 00 00 00 00    	lea    0x0(%esi),%esi
    8bc8:	83 ec 08             	sub    $0x8,%esp
    8bcb:	8d 45 d4             	lea    -0x2c(%ebp),%eax
    8bce:	c7 45 d4 49 6e 76 61 	movl   $0x61766e49,-0x2c(%ebp)
    8bd5:	c7 45 d8 6c 69 64 20 	movl   $0x2064696c,-0x28(%ebp)
    8bdc:	c7 45 dc 73 75 62 63 	movl   $0x63627573,-0x24(%ebp)
    8be3:	c7 45 e0 6c 61 73 73 	movl   $0x7373616c,-0x20(%ebp)
    8bea:	c7 45 e4 43 6f 64 65 	movl   $0x65646f43,-0x1c(%ebp)
    8bf1:	c7 45 e8 20 6f 72 20 	movl   $0x20726f20,-0x18(%ebp)
    8bf8:	c7 45 ec 75 6e 73 70 	movl   $0x70736e75,-0x14(%ebp)
    8bff:	c7 45 f0 65 63 69 66 	movl   $0x66696365,-0x10(%ebp)
    8c06:	c7 45 f4 69 65 64 00 	movl   $0x646569,-0xc(%ebp)
    8c0d:	50                   	push   %eax
    8c0e:	53                   	push   %ebx
    8c0f:	e8 7c 1a 00 00       	call   a690 <strcpy>
    8c14:	83 c4 10             	add    $0x10,%esp
    8c17:	8d 65 f8             	lea    -0x8(%ebp),%esp
    8c1a:	5b                   	pop    %ebx
    8c1b:	5e                   	pop    %esi
    8c1c:	5d                   	pop    %ebp
    8c1d:	c3                   	ret    
    8c1e:	66 90                	xchg   %ax,%ax

00008c20 <xhcd_init>:
    8c20:	55                   	push   %ebp
    8c21:	89 e5                	mov    %esp,%ebp
    8c23:	57                   	push   %edi
    8c24:	56                   	push   %esi
    8c25:	53                   	push   %ebx
    8c26:	83 ec 6c             	sub    $0x6c,%esp
    8c29:	8b 45 08             	mov    0x8(%ebp),%eax
    8c2c:	8b 5d 0c             	mov    0xc(%ebp),%ebx
    8c2f:	8b 70 14             	mov    0x14(%eax),%esi
    8c32:	8b 40 10             	mov    0x10(%eax),%eax
    8c35:	85 f6                	test   %esi,%esi
    8c37:	0f 85 c9 02 00 00    	jne    8f06 <xhcd_init+0x2e6>
    8c3d:	83 e0 c0             	and    $0xffffffc0,%eax
    8c40:	83 ec 0c             	sub    $0xc,%esp
    8c43:	89 43 04             	mov    %eax,0x4(%ebx)
    8c46:	8b 53 04             	mov    0x4(%ebx),%edx
    8c49:	0f b6 12             	movzbl (%edx),%edx
    8c4c:	8b 4b 04             	mov    0x4(%ebx),%ecx
    8c4f:	8b 49 14             	mov    0x14(%ecx),%ecx
    8c52:	8b 7b 04             	mov    0x4(%ebx),%edi
    8c55:	01 c2                	add    %eax,%edx
    8c57:	8b 7f 18             	mov    0x18(%edi),%edi
    8c5a:	01 c1                	add    %eax,%ecx
    8c5c:	89 53 08             	mov    %edx,0x8(%ebx)
    8c5f:	89 4b 0c             	mov    %ecx,0xc(%ebx)
    8c62:	8d 44 38 20          	lea    0x20(%eax,%edi,1),%eax
    8c66:	89 43 10             	mov    %eax,0x10(%ebx)
    8c69:	8b 7b 08             	mov    0x8(%ebx),%edi
    8c6c:	8b 4b 10             	mov    0x10(%ebx),%ecx
    8c6f:	8b 53 0c             	mov    0xc(%ebx),%edx
    8c72:	8b 43 04             	mov    0x4(%ebx),%eax
    8c75:	57                   	push   %edi
    8c76:	51                   	push   %ecx
    8c77:	52                   	push   %edx
    8c78:	50                   	push   %eax
    8c79:	68 58 b0 00 00       	push   $0xb058
    8c7e:	e8 0d 14 00 00       	call   a090 <printf>
    8c83:	8b 53 08             	mov    0x8(%ebx),%edx
    8c86:	83 c4 20             	add    $0x20,%esp
    8c89:	8b 02                	mov    (%edx),%eax
    8c8b:	83 e0 fe             	and    $0xfffffffe,%eax
    8c8e:	89 02                	mov    %eax,(%edx)
    8c90:	8b 43 08             	mov    0x8(%ebx),%eax
    8c93:	8b 40 04             	mov    0x4(%eax),%eax
    8c96:	a8 01                	test   $0x1,%al
    8c98:	74 f6                	je     8c90 <xhcd_init+0x70>
    8c9a:	8b 53 08             	mov    0x8(%ebx),%edx
    8c9d:	83 ec 0c             	sub    $0xc,%esp
    8ca0:	8b 02                	mov    (%edx),%eax
    8ca2:	83 c8 02             	or     $0x2,%eax
    8ca5:	89 02                	mov    %eax,(%edx)
    8ca7:	68 88 b0 00 00       	push   $0xb088
    8cac:	e8 df 13 00 00       	call   a090 <printf>
    8cb1:	8b 53 08             	mov    0x8(%ebx),%edx
    8cb4:	83 c4 10             	add    $0x10,%esp
    8cb7:	8b 42 04             	mov    0x4(%edx),%eax
    8cba:	f6 c4 08             	test   $0x8,%ah
    8cbd:	74 09                	je     8cc8 <xhcd_init+0xa8>
    8cbf:	90                   	nop
    8cc0:	8b 42 04             	mov    0x4(%edx),%eax
    8cc3:	f6 c4 08             	test   $0x8,%ah
    8cc6:	75 f8                	jne    8cc0 <xhcd_init+0xa0>
    8cc8:	8b 53 08             	mov    0x8(%ebx),%edx
    8ccb:	83 ec 04             	sub    $0x4,%esp
    8cce:	8b 42 38             	mov    0x38(%edx),%eax
    8cd1:	30 c0                	xor    %al,%al
    8cd3:	83 c8 10             	or     $0x10,%eax
    8cd6:	89 42 38             	mov    %eax,0x38(%edx)
    8cd9:	68 88 00 00 00       	push   $0x88
    8cde:	6a 00                	push   $0x0
    8ce0:	68 40 99 03 00       	push   $0x39940
    8ce5:	e8 a6 15 00 00       	call   a290 <memset>
    8cea:	8b 43 08             	mov    0x8(%ebx),%eax
    8ced:	ba 40 99 03 00       	mov    $0x39940,%edx
    8cf2:	83 c4 0c             	add    $0xc,%esp
    8cf5:	c7 45 e4 20 00 00 00 	movl   $0x20,-0x1c(%ebp)
    8cfc:	89 50 30             	mov    %edx,0x30(%eax)
    8cff:	8d 55 dc             	lea    -0x24(%ebp),%edx
    8d02:	c7 40 34 00 00 00 00 	movl   $0x0,0x34(%eax)
    8d09:	b8 40 19 03 00       	mov    $0x31940,%eax
    8d0e:	89 45 dc             	mov    %eax,-0x24(%ebp)
    8d11:	c1 f8 1f             	sar    $0x1f,%eax
    8d14:	89 45 e0             	mov    %eax,-0x20(%ebp)
    8d17:	8d 45 c0             	lea    -0x40(%ebp),%eax
    8d1a:	6a 01                	push   $0x1
    8d1c:	52                   	push   %edx
    8d1d:	50                   	push   %eax
    8d1e:	e8 bd 0a 00 00       	call   97e0 <xhcd_newRing>
    8d23:	8b 45 c0             	mov    -0x40(%ebp),%eax
    8d26:	8b 55 c4             	mov    -0x3c(%ebp),%edx
    8d29:	83 ec 0c             	sub    $0xc,%esp
    8d2c:	a3 24 d0 00 00       	mov    %eax,0xd024
    8d31:	8b 43 08             	mov    0x8(%ebx),%eax
    8d34:	89 15 28 d0 00 00    	mov    %edx,0xd028
    8d3a:	68 24 d0 00 00       	push   $0xd024
    8d3f:	50                   	push   %eax
    8d40:	e8 ab 0b 00 00       	call   98f0 <xhcd_attachCommandRing>
    8d45:	83 c4 20             	add    $0x20,%esp
    8d48:	8d 55 d4             	lea    -0x2c(%ebp),%edx
    8d4b:	8d 45 98             	lea    -0x68(%ebp),%eax
    8d4e:	c7 45 d4 00 18 03 00 	movl   $0x31800,-0x2c(%ebp)
    8d55:	c7 45 d8 10 00 00 00 	movl   $0x10,-0x28(%ebp)
    8d5c:	68 00 19 03 00       	push   $0x31900
    8d61:	6a 01                	push   $0x1
    8d63:	52                   	push   %edx
    8d64:	50                   	push   %eax
    8d65:	e8 f6 0f 00 00       	call   9d60 <xhcd_newEventRing>
    8d6a:	8b 45 98             	mov    -0x68(%ebp),%eax
    8d6d:	83 ec 0c             	sub    $0xc,%esp
    8d70:	a3 00 d0 00 00       	mov    %eax,0xd000
    8d75:	8b 45 9c             	mov    -0x64(%ebp),%eax
    8d78:	a3 04 d0 00 00       	mov    %eax,0xd004
    8d7d:	8b 45 a0             	mov    -0x60(%ebp),%eax
    8d80:	a3 08 d0 00 00       	mov    %eax,0xd008
    8d85:	8b 45 a4             	mov    -0x5c(%ebp),%eax
    8d88:	a3 0c d0 00 00       	mov    %eax,0xd00c
    8d8d:	8b 45 a8             	mov    -0x58(%ebp),%eax
    8d90:	a3 10 d0 00 00       	mov    %eax,0xd010
    8d95:	8b 45 ac             	mov    -0x54(%ebp),%eax
    8d98:	a3 14 d0 00 00       	mov    %eax,0xd014
    8d9d:	8b 45 b0             	mov    -0x50(%ebp),%eax
    8da0:	a3 18 d0 00 00       	mov    %eax,0xd018
    8da5:	8b 43 10             	mov    0x10(%ebx),%eax
    8da8:	50                   	push   %eax
    8da9:	68 00 d0 00 00       	push   $0xd000
    8dae:	e8 7d 10 00 00       	call   9e30 <xhcd_attachEventRing>
    8db3:	8b 43 04             	mov    0x4(%ebx),%eax
    8db6:	83 c4 18             	add    $0x18,%esp
    8db9:	8b 40 08             	mov    0x8(%eax),%eax
    8dbc:	89 45 d0             	mov    %eax,-0x30(%ebp)
    8dbf:	8b 45 d0             	mov    -0x30(%ebp),%eax
    8dc2:	8b 55 d0             	mov    -0x30(%ebp),%edx
    8dc5:	c1 e8 10             	shr    $0x10,%eax
    8dc8:	25 e0 03 00 00       	and    $0x3e0,%eax
    8dcd:	c1 ea 1b             	shr    $0x1b,%edx
    8dd0:	09 c2                	or     %eax,%edx
    8dd2:	89 55 94             	mov    %edx,-0x6c(%ebp)
    8dd5:	52                   	push   %edx
    8dd6:	68 be b4 00 00       	push   $0xb4be
    8ddb:	e8 b0 12 00 00       	call   a090 <printf>
    8de0:	8b 43 08             	mov    0x8(%ebx),%eax
    8de3:	8b 40 08             	mov    0x8(%eax),%eax
    8de6:	c1 e0 0c             	shl    $0xc,%eax
    8de9:	89 c7                	mov    %eax,%edi
    8deb:	58                   	pop    %eax
    8dec:	5a                   	pop    %edx
    8ded:	57                   	push   %edi
    8dee:	68 da b4 00 00       	push   $0xb4da
    8df3:	e8 98 12 00 00       	call   a090 <printf>
    8df8:	b9 00 f0 00 00       	mov    $0xf000,%ecx
    8dfd:	31 d2                	xor    %edx,%edx
    8dff:	89 7d 90             	mov    %edi,-0x70(%ebp)
    8e02:	89 c8                	mov    %ecx,%eax
    8e04:	83 c4 10             	add    $0x10,%esp
    8e07:	f7 f7                	div    %edi
    8e09:	89 f8                	mov    %edi,%eax
    8e0b:	89 cf                	mov    %ecx,%edi
    8e0d:	29 d0                	sub    %edx,%eax
    8e0f:	39 45 90             	cmp    %eax,-0x70(%ebp)
    8e12:	74 04                	je     8e18 <xhcd_init+0x1f8>
    8e14:	01 c1                	add    %eax,%ecx
    8e16:	89 cf                	mov    %ecx,%edi
    8e18:	83 ec 08             	sub    $0x8,%esp
    8e1b:	89 4d 8c             	mov    %ecx,-0x74(%ebp)
    8e1e:	57                   	push   %edi
    8e1f:	68 e8 b4 00 00       	push   $0xb4e8
    8e24:	e8 67 12 00 00       	call   a090 <printf>
    8e29:	8b 45 8c             	mov    -0x74(%ebp),%eax
    8e2c:	31 d2                	xor    %edx,%edx
    8e2e:	83 c4 10             	add    $0x10,%esp
    8e31:	f7 75 90             	divl   -0x70(%ebp)
    8e34:	85 d2                	test   %edx,%edx
    8e36:	0f 85 b4 00 00 00    	jne    8ef0 <xhcd_init+0x2d0>
    8e3c:	8b 45 94             	mov    -0x6c(%ebp),%eax
    8e3f:	85 c0                	test   %eax,%eax
    8e41:	74 3b                	je     8e7e <xhcd_init+0x25e>
    8e43:	89 5d 0c             	mov    %ebx,0xc(%ebp)
    8e46:	8b 5d 90             	mov    -0x70(%ebp),%ebx
    8e49:	8d b4 26 00 00 00 00 	lea    0x0(%esi,%eiz,1),%esi
    8e50:	89 f8                	mov    %edi,%eax
    8e52:	83 ec 04             	sub    $0x4,%esp
    8e55:	89 3c f5 00 10 03 00 	mov    %edi,0x31000(,%esi,8)
    8e5c:	99                   	cltd   
    8e5d:	89 14 f5 04 10 03 00 	mov    %edx,0x31004(,%esi,8)
    8e64:	83 c6 01             	add    $0x1,%esi
    8e67:	53                   	push   %ebx
    8e68:	6a 00                	push   $0x0
    8e6a:	57                   	push   %edi
    8e6b:	83 c7 08             	add    $0x8,%edi
    8e6e:	e8 1d 14 00 00       	call   a290 <memset>
    8e73:	83 c4 10             	add    $0x10,%esp
    8e76:	39 75 94             	cmp    %esi,-0x6c(%ebp)
    8e79:	75 d5                	jne    8e50 <xhcd_init+0x230>
    8e7b:	8b 5d 0c             	mov    0xc(%ebp),%ebx
    8e7e:	b8 00 10 03 00       	mov    $0x31000,%eax
    8e83:	83 ec 08             	sub    $0x8,%esp
    8e86:	99                   	cltd   
    8e87:	a3 40 99 03 00       	mov    %eax,0x39940
    8e8c:	89 15 44 99 03 00    	mov    %edx,0x39944
    8e92:	8b 43 08             	mov    0x8(%ebx),%eax
    8e95:	8b 00                	mov    (%eax),%eax
    8e97:	8b 53 08             	mov    0x8(%ebx),%edx
    8e9a:	83 c8 01             	or     $0x1,%eax
    8e9d:	89 02                	mov    %eax,(%edx)
    8e9f:	8b 43 08             	mov    0x8(%ebx),%eax
    8ea2:	8b 00                	mov    (%eax),%eax
    8ea4:	83 e0 01             	and    $0x1,%eax
    8ea7:	50                   	push   %eax
    8ea8:	68 1b b5 00 00       	push   $0xb51b
    8ead:	e8 de 11 00 00       	call   a090 <printf>
    8eb2:	8b 43 08             	mov    0x8(%ebx),%eax
    8eb5:	5a                   	pop    %edx
    8eb6:	59                   	pop    %ecx
    8eb7:	8b 40 04             	mov    0x4(%eax),%eax
    8eba:	83 e0 01             	and    $0x1,%eax
    8ebd:	50                   	push   %eax
    8ebe:	68 2b b5 00 00       	push   $0xb52b
    8ec3:	e8 c8 11 00 00       	call   a090 <printf>
    8ec8:	8b 43 08             	mov    0x8(%ebx),%eax
    8ecb:	5b                   	pop    %ebx
    8ecc:	5e                   	pop    %esi
    8ecd:	8b 40 04             	mov    0x4(%eax),%eax
    8ed0:	25 00 10 00 00       	and    $0x1000,%eax
    8ed5:	50                   	push   %eax
    8ed6:	68 3a b5 00 00       	push   $0xb53a
    8edb:	e8 b0 11 00 00       	call   a090 <printf>
    8ee0:	83 c4 10             	add    $0x10,%esp
    8ee3:	31 c0                	xor    %eax,%eax
    8ee5:	8d 65 f4             	lea    -0xc(%ebp),%esp
    8ee8:	5b                   	pop    %ebx
    8ee9:	5e                   	pop    %esi
    8eea:	5f                   	pop    %edi
    8eeb:	5d                   	pop    %ebp
    8eec:	c3                   	ret    
    8eed:	8d 76 00             	lea    0x0(%esi),%esi
    8ef0:	83 ec 08             	sub    $0x8,%esp
    8ef3:	52                   	push   %edx
    8ef4:	68 00 b5 00 00       	push   $0xb500
    8ef9:	e8 92 11 00 00       	call   a090 <printf>
    8efe:	83 c4 10             	add    $0x10,%esp
    8f01:	e9 36 ff ff ff       	jmp    8e3c <xhcd_init+0x21c>
    8f06:	83 ec 04             	sub    $0x4,%esp
    8f09:	56                   	push   %esi
    8f0a:	50                   	push   %eax
    8f0b:	68 20 b0 00 00       	push   $0xb020
    8f10:	e8 7b 11 00 00       	call   a090 <printf>
    8f15:	83 c4 10             	add    $0x10,%esp
    8f18:	b8 ff ff ff ff       	mov    $0xffffffff,%eax
    8f1d:	eb c6                	jmp    8ee5 <xhcd_init+0x2c5>
    8f1f:	90                   	nop

00008f20 <xhcd_checkForDeviceAttach>:
    8f20:	55                   	push   %ebp
    8f21:	89 e5                	mov    %esp,%ebp
    8f23:	56                   	push   %esi
    8f24:	53                   	push   %ebx
    8f25:	83 ec 10             	sub    $0x10,%esp
    8f28:	8b 45 08             	mov    0x8(%ebp),%eax
    8f2b:	8b 50 04             	mov    0x4(%eax),%edx
    8f2e:	8b 52 04             	mov    0x4(%edx),%edx
    8f31:	89 55 f0             	mov    %edx,-0x10(%ebp)
    8f34:	0f b6 4d f3          	movzbl -0xd(%ebp),%ecx
    8f38:	8b 58 08             	mov    0x8(%eax),%ebx
    8f3b:	85 c9                	test   %ecx,%ecx
    8f3d:	74 41                	je     8f80 <xhcd_checkForDeviceAttach+0x60>
    8f3f:	31 d2                	xor    %edx,%edx
    8f41:	eb 0c                	jmp    8f4f <xhcd_checkForDeviceAttach+0x2f>
    8f43:	8d 74 26 00          	lea    0x0(%esi,%eiz,1),%esi
    8f47:	90                   	nop
    8f48:	83 c2 01             	add    $0x1,%edx
    8f4b:	39 d1                	cmp    %edx,%ecx
    8f4d:	74 31                	je     8f80 <xhcd_checkForDeviceAttach+0x60>
    8f4f:	8d 42 40             	lea    0x40(%edx),%eax
    8f52:	c1 e0 04             	shl    $0x4,%eax
    8f55:	01 d8                	add    %ebx,%eax
    8f57:	8b 30                	mov    (%eax),%esi
    8f59:	89 75 f4             	mov    %esi,-0xc(%ebp)
    8f5c:	8b 75 f4             	mov    -0xc(%ebp),%esi
    8f5f:	83 e6 01             	and    $0x1,%esi
    8f62:	74 e4                	je     8f48 <xhcd_checkForDeviceAttach+0x28>
    8f64:	8b 4d f4             	mov    -0xc(%ebp),%ecx
    8f67:	81 c9 00 00 02 00    	or     $0x20000,%ecx
    8f6d:	89 4d f4             	mov    %ecx,-0xc(%ebp)
    8f70:	8b 4d f4             	mov    -0xc(%ebp),%ecx
    8f73:	89 08                	mov    %ecx,(%eax)
    8f75:	83 c4 10             	add    $0x10,%esp
    8f78:	89 d0                	mov    %edx,%eax
    8f7a:	5b                   	pop    %ebx
    8f7b:	5e                   	pop    %esi
    8f7c:	5d                   	pop    %ebp
    8f7d:	c3                   	ret    
    8f7e:	66 90                	xchg   %ax,%ax
    8f80:	83 c4 10             	add    $0x10,%esp
    8f83:	ba ff ff ff ff       	mov    $0xffffffff,%edx
    8f88:	5b                   	pop    %ebx
    8f89:	89 d0                	mov    %edx,%eax
    8f8b:	5e                   	pop    %esi
    8f8c:	5d                   	pop    %ebp
    8f8d:	c3                   	ret    
    8f8e:	66 90                	xchg   %ax,%ax

00008f90 <xhcd_enable>:
    8f90:	55                   	push   %ebp
    8f91:	89 e5                	mov    %esp,%ebp
    8f93:	57                   	push   %edi
    8f94:	56                   	push   %esi
    8f95:	53                   	push   %ebx
    8f96:	83 ec 1c             	sub    $0x1c,%esp
    8f99:	8b 75 0c             	mov    0xc(%ebp),%esi
    8f9c:	8b 7d 08             	mov    0x8(%ebp),%edi
    8f9f:	8d 5e 40             	lea    0x40(%esi),%ebx
    8fa2:	8b 47 08             	mov    0x8(%edi),%eax
    8fa5:	89 da                	mov    %ebx,%edx
    8fa7:	c1 e2 04             	shl    $0x4,%edx
    8faa:	01 d0                	add    %edx,%eax
    8fac:	8b 00                	mov    (%eax),%eax
    8fae:	89 45 e0             	mov    %eax,-0x20(%ebp)
    8fb1:	8b 45 e0             	mov    -0x20(%ebp),%eax
    8fb4:	a8 02                	test   $0x2,%al
    8fb6:	0f 85 b4 00 00 00    	jne    9070 <xhcd_enable+0xe0>
    8fbc:	83 ec 0c             	sub    $0xc,%esp
    8fbf:	c1 e6 04             	shl    $0x4,%esi
    8fc2:	68 62 b5 00 00       	push   $0xb562
    8fc7:	e8 c4 10 00 00       	call   a090 <printf>
    8fcc:	8b 4f 08             	mov    0x8(%edi),%ecx
    8fcf:	89 da                	mov    %ebx,%edx
    8fd1:	83 c4 10             	add    $0x10,%esp
    8fd4:	c1 e2 04             	shl    $0x4,%edx
    8fd7:	01 ca                	add    %ecx,%edx
    8fd9:	01 f1                	add    %esi,%ecx
    8fdb:	8b 02                	mov    (%edx),%eax
    8fdd:	89 45 dc             	mov    %eax,-0x24(%ebp)
    8fe0:	8b 45 dc             	mov    -0x24(%ebp),%eax
    8fe3:	83 c8 10             	or     $0x10,%eax
    8fe6:	89 45 dc             	mov    %eax,-0x24(%ebp)
    8fe9:	8b 45 dc             	mov    -0x24(%ebp),%eax
    8fec:	89 81 00 04 00 00    	mov    %eax,0x400(%ecx)
    8ff2:	8b 45 dc             	mov    -0x24(%ebp),%eax
    8ff5:	a9 00 00 20 00       	test   $0x200000,%eax
    8ffa:	75 13                	jne    900f <xhcd_enable+0x7f>
    8ffc:	8d 74 26 00          	lea    0x0(%esi,%eiz,1),%esi
    9000:	8b 02                	mov    (%edx),%eax
    9002:	89 45 dc             	mov    %eax,-0x24(%ebp)
    9005:	8b 45 dc             	mov    -0x24(%ebp),%eax
    9008:	a9 00 00 20 00       	test   $0x200000,%eax
    900d:	74 f1                	je     9000 <xhcd_enable+0x70>
    900f:	8b 45 dc             	mov    -0x24(%ebp),%eax
    9012:	c1 e3 04             	shl    $0x4,%ebx
    9015:	0d 00 00 20 00       	or     $0x200000,%eax
    901a:	89 45 dc             	mov    %eax,-0x24(%ebp)
    901d:	8b 45 dc             	mov    -0x24(%ebp),%eax
    9020:	89 81 00 04 00 00    	mov    %eax,0x400(%ecx)
    9026:	8b 47 08             	mov    0x8(%edi),%eax
    9029:	01 d8                	add    %ebx,%eax
    902b:	8b 00                	mov    (%eax),%eax
    902d:	89 45 e4             	mov    %eax,-0x1c(%ebp)
    9030:	8b 55 e4             	mov    -0x1c(%ebp),%edx
    9033:	31 c0                	xor    %eax,%eax
    9035:	83 e2 02             	and    $0x2,%edx
    9038:	75 0e                	jne    9048 <xhcd_enable+0xb8>
    903a:	8d 65 f4             	lea    -0xc(%ebp),%esp
    903d:	5b                   	pop    %ebx
    903e:	5e                   	pop    %esi
    903f:	5f                   	pop    %edi
    9040:	5d                   	pop    %ebp
    9041:	c3                   	ret    
    9042:	8d b6 00 00 00 00    	lea    0x0(%esi),%esi
    9048:	8b 55 e4             	mov    -0x1c(%ebp),%edx
    904b:	83 e2 10             	and    $0x10,%edx
    904e:	75 ea                	jne    903a <xhcd_enable+0xaa>
    9050:	8b 45 e4             	mov    -0x1c(%ebp),%eax
    9053:	a9 e0 01 00 00       	test   $0x1e0,%eax
    9058:	0f 94 c0             	sete   %al
    905b:	8d 65 f4             	lea    -0xc(%ebp),%esp
    905e:	5b                   	pop    %ebx
    905f:	0f b6 c0             	movzbl %al,%eax
    9062:	5e                   	pop    %esi
    9063:	5f                   	pop    %edi
    9064:	5d                   	pop    %ebp
    9065:	c3                   	ret    
    9066:	8d b4 26 00 00 00 00 	lea    0x0(%esi,%eiz,1),%esi
    906d:	8d 76 00             	lea    0x0(%esi),%esi
    9070:	8b 45 e0             	mov    -0x20(%ebp),%eax
    9073:	a8 10                	test   $0x10,%al
    9075:	0f 85 41 ff ff ff    	jne    8fbc <xhcd_enable+0x2c>
    907b:	8b 45 e0             	mov    -0x20(%ebp),%eax
    907e:	a9 e0 01 00 00       	test   $0x1e0,%eax
    9083:	0f 85 33 ff ff ff    	jne    8fbc <xhcd_enable+0x2c>
    9089:	83 ec 0c             	sub    $0xc,%esp
    908c:	68 45 b5 00 00       	push   $0xb545
    9091:	e8 fa 0f 00 00       	call   a090 <printf>
    9096:	83 c4 10             	add    $0x10,%esp
    9099:	8d 65 f4             	lea    -0xc(%ebp),%esp
    909c:	b8 01 00 00 00       	mov    $0x1,%eax
    90a1:	5b                   	pop    %ebx
    90a2:	5e                   	pop    %esi
    90a3:	5f                   	pop    %edi
    90a4:	5d                   	pop    %ebp
    90a5:	c3                   	ret    
    90a6:	8d b4 26 00 00 00 00 	lea    0x0(%esi,%eiz,1),%esi
    90ad:	8d 76 00             	lea    0x0(%esi),%esi

000090b0 <xhcd_initPort>:
    90b0:	55                   	push   %ebp
    90b1:	89 e5                	mov    %esp,%ebp
    90b3:	57                   	push   %edi
    90b4:	56                   	push   %esi
    90b5:	53                   	push   %ebx
    90b6:	81 ec 1c 01 00 00    	sub    $0x11c,%esp
    90bc:	8b 45 08             	mov    0x8(%ebp),%eax
    90bf:	8b 50 04             	mov    0x4(%eax),%edx
    90c2:	8b 42 10             	mov    0x10(%edx),%eax
    90c5:	89 85 f0 fe ff ff    	mov    %eax,-0x110(%ebp)
    90cb:	0f b7 85 f2 fe ff ff 	movzwl -0x10e(%ebp),%eax
    90d2:	8d 14 82             	lea    (%edx,%eax,4),%edx
    90d5:	0f b6 02             	movzbl (%edx),%eax
    90d8:	3c 02                	cmp    $0x2,%al
    90da:	75 14                	jne    90f0 <xhcd_initPort+0x40>
    90dc:	eb 22                	jmp    9100 <xhcd_initPort+0x50>
    90de:	66 90                	xchg   %ax,%ax
    90e0:	0f b6 42 01          	movzbl 0x1(%edx),%eax
    90e4:	c1 e0 05             	shl    $0x5,%eax
    90e7:	01 c2                	add    %eax,%edx
    90e9:	0f b6 02             	movzbl (%edx),%eax
    90ec:	3c 02                	cmp    $0x2,%al
    90ee:	74 10                	je     9100 <xhcd_initPort+0x50>
    90f0:	0f b6 42 01          	movzbl 0x1(%edx),%eax
    90f4:	84 c0                	test   %al,%al
    90f6:	75 e8                	jne    90e0 <xhcd_initPort+0x30>
    90f8:	b8 ff ff ff ff       	mov    $0xffffffff,%eax
    90fd:	eb 07                	jmp    9106 <xhcd_initPort+0x56>
    90ff:	90                   	nop
    9100:	8b 42 0c             	mov    0xc(%edx),%eax
    9103:	83 e0 0f             	and    $0xf,%eax
    9106:	8d 95 28 ff ff ff    	lea    -0xd8(%ebp),%edx
    910c:	83 ec 08             	sub    $0x8,%esp
    910f:	8d 9d 08 ff ff ff    	lea    -0xf8(%ebp),%ebx
    9115:	50                   	push   %eax
    9116:	52                   	push   %edx
    9117:	e8 94 09 00 00       	call   9ab0 <TRB_ENABLE_SLOT>
    911c:	68 24 d0 00 00       	push   $0xd024
    9121:	ff b5 34 ff ff ff    	push   -0xcc(%ebp)
    9127:	ff b5 30 ff ff ff    	push   -0xd0(%ebp)
    912d:	ff b5 2c ff ff ff    	push   -0xd4(%ebp)
    9133:	ff b5 28 ff ff ff    	push   -0xd8(%ebp)
    9139:	e8 a2 08 00 00       	call   99e0 <xhcd_putTRB>
    913e:	8b 45 08             	mov    0x8(%ebp),%eax
    9141:	83 c4 20             	add    $0x20,%esp
    9144:	8b 40 0c             	mov    0xc(%eax),%eax
    9147:	c7 00 00 00 00 00    	movl   $0x0,(%eax)
    914d:	8d 76 00             	lea    0x0(%esi),%esi
    9150:	83 ec 04             	sub    $0x4,%esp
    9153:	6a 01                	push   $0x1
    9155:	53                   	push   %ebx
    9156:	68 00 d0 00 00       	push   $0xd000
    915b:	e8 10 0d 00 00       	call   9e70 <xhcd_readEvent>
    9160:	83 c4 10             	add    $0x10,%esp
    9163:	85 c0                	test   %eax,%eax
    9165:	74 e9                	je     9150 <xhcd_initPort+0xa0>
    9167:	8b 85 14 ff ff ff    	mov    -0xec(%ebp),%eax
    916d:	c1 e8 0a             	shr    $0xa,%eax
    9170:	83 e0 3f             	and    $0x3f,%eax
    9173:	3c 22                	cmp    $0x22,%al
    9175:	74 d9                	je     9150 <xhcd_initPort+0xa0>
    9177:	8b 85 14 ff ff ff    	mov    -0xec(%ebp),%eax
    917d:	c1 e8 0a             	shr    $0xa,%eax
    9180:	83 e0 3f             	and    $0x3f,%eax
    9183:	3c 21                	cmp    $0x21,%al
    9185:	0f 85 35 05 00 00    	jne    96c0 <xhcd_initPort+0x610>
    918b:	0f b6 85 13 ff ff ff 	movzbl -0xed(%ebp),%eax
    9192:	3c 09                	cmp    $0x9,%al
    9194:	0f 84 a2 05 00 00    	je     973c <xhcd_initPort+0x68c>
    919a:	0f b6 85 13 ff ff ff 	movzbl -0xed(%ebp),%eax
    91a1:	3c 01                	cmp    $0x1,%al
    91a3:	74 23                	je     91c8 <xhcd_initPort+0x118>
    91a5:	83 ec 0c             	sub    $0xc,%esp
    91a8:	68 dc b0 00 00       	push   $0xb0dc
    91ad:	e8 de 0e 00 00       	call   a090 <printf>
    91b2:	83 c4 10             	add    $0x10,%esp
    91b5:	b8 ff ff ff ff       	mov    $0xffffffff,%eax
    91ba:	8d 65 f4             	lea    -0xc(%ebp),%esp
    91bd:	5b                   	pop    %ebx
    91be:	5e                   	pop    %esi
    91bf:	5f                   	pop    %edi
    91c0:	5d                   	pop    %ebp
    91c1:	c3                   	ret    
    91c2:	8d b6 00 00 00 00    	lea    0x0(%esi),%esi
    91c8:	0f b6 85 17 ff ff ff 	movzbl -0xe9(%ebp),%eax
    91cf:	83 ec 08             	sub    $0x8,%esp
    91d2:	50                   	push   %eax
    91d3:	68 93 b5 00 00       	push   $0xb593
    91d8:	e8 b3 0e 00 00       	call   a090 <printf>
    91dd:	0f b6 9d 17 ff ff ff 	movzbl -0xe9(%ebp),%ebx
    91e4:	83 c4 0c             	add    $0xc,%esp
    91e7:	89 df                	mov    %ebx,%edi
    91e9:	88 9d dc fe ff ff    	mov    %bl,-0x124(%ebp)
    91ef:	c1 e7 0a             	shl    $0xa,%edi
    91f2:	68 00 04 00 00       	push   $0x400
    91f7:	8d b7 40 59 03 00    	lea    0x35940(%edi),%esi
    91fd:	6a 00                	push   $0x0
    91ff:	56                   	push   %esi
    9200:	e8 8b 10 00 00       	call   a290 <memset>
    9205:	8b 46 04             	mov    0x4(%esi),%eax
    9208:	0f b6 4d 0c          	movzbl 0xc(%ebp),%ecx
    920c:	83 c4 0c             	add    $0xc,%esp
    920f:	83 c8 03             	or     $0x3,%eax
    9212:	89 46 04             	mov    %eax,0x4(%esi)
    9215:	8b 97 60 59 03 00    	mov    0x35960(%edi),%edx
    921b:	b8 00 e0 00 00       	mov    $0xe000,%eax
    9220:	89 95 78 ff ff ff    	mov    %edx,-0x88(%ebp)
    9226:	8b 97 64 59 03 00    	mov    0x35964(%edi),%edx
    922c:	89 95 7c ff ff ff    	mov    %edx,-0x84(%ebp)
    9232:	8b 97 68 59 03 00    	mov    0x35968(%edi),%edx
    9238:	89 55 80             	mov    %edx,-0x80(%ebp)
    923b:	8b 97 6c 59 03 00    	mov    0x3596c(%edi),%edx
    9241:	89 55 84             	mov    %edx,-0x7c(%ebp)
    9244:	8b 97 70 59 03 00    	mov    0x35970(%edi),%edx
    924a:	89 55 88             	mov    %edx,-0x78(%ebp)
    924d:	8b 97 74 59 03 00    	mov    0x35974(%edi),%edx
    9253:	89 55 8c             	mov    %edx,-0x74(%ebp)
    9256:	8b 97 78 59 03 00    	mov    0x35978(%edi),%edx
    925c:	89 55 90             	mov    %edx,-0x70(%ebp)
    925f:	8b 97 7c 59 03 00    	mov    0x3597c(%edi),%edx
    9265:	89 55 94             	mov    %edx,-0x6c(%ebp)
    9268:	8d 51 01             	lea    0x1(%ecx),%edx
    926b:	88 95 7e ff ff ff    	mov    %dl,-0x82(%ebp)
    9271:	8b 95 78 ff ff ff    	mov    -0x88(%ebp),%edx
    9277:	81 e2 00 00 f0 ff    	and    $0xfff00000,%edx
    927d:	89 95 78 ff ff ff    	mov    %edx,-0x88(%ebp)
    9283:	8b 95 78 ff ff ff    	mov    -0x88(%ebp),%edx
    9289:	81 e2 ff ff ff 07    	and    $0x7ffffff,%edx
    928f:	81 ca 00 00 00 08    	or     $0x8000000,%edx
    9295:	89 95 78 ff ff ff    	mov    %edx,-0x88(%ebp)
    929b:	8b 95 78 ff ff ff    	mov    -0x88(%ebp),%edx
    92a1:	89 97 60 59 03 00    	mov    %edx,0x35960(%edi)
    92a7:	8b 95 7c ff ff ff    	mov    -0x84(%ebp),%edx
    92ad:	89 97 64 59 03 00    	mov    %edx,0x35964(%edi)
    92b3:	8b 55 80             	mov    -0x80(%ebp),%edx
    92b6:	89 97 68 59 03 00    	mov    %edx,0x35968(%edi)
    92bc:	8b 55 84             	mov    -0x7c(%ebp),%edx
    92bf:	89 97 6c 59 03 00    	mov    %edx,0x3596c(%edi)
    92c5:	8b 55 88             	mov    -0x78(%ebp),%edx
    92c8:	89 85 fc fe ff ff    	mov    %eax,-0x104(%ebp)
    92ce:	c1 f8 1f             	sar    $0x1f,%eax
    92d1:	89 97 70 59 03 00    	mov    %edx,0x35970(%edi)
    92d7:	8b 55 8c             	mov    -0x74(%ebp),%edx
    92da:	89 85 00 ff ff ff    	mov    %eax,-0x100(%ebp)
    92e0:	8d 85 e0 fe ff ff    	lea    -0x120(%ebp),%eax
    92e6:	89 97 74 59 03 00    	mov    %edx,0x35974(%edi)
    92ec:	8b 55 90             	mov    -0x70(%ebp),%edx
    92ef:	c7 85 04 ff ff ff 10 	movl   $0x10,-0xfc(%ebp)
    92f6:	00 00 00 
    92f9:	89 97 78 59 03 00    	mov    %edx,0x35978(%edi)
    92ff:	8b 55 94             	mov    -0x6c(%ebp),%edx
    9302:	89 97 7c 59 03 00    	mov    %edx,0x3597c(%edi)
    9308:	8d 95 fc fe ff ff    	lea    -0x104(%ebp),%edx
    930e:	6a 01                	push   $0x1
    9310:	52                   	push   %edx
    9311:	50                   	push   %eax
    9312:	e8 c9 04 00 00       	call   97e0 <xhcd_newRing>
    9317:	8b 85 e0 fe ff ff    	mov    -0x120(%ebp),%eax
    931d:	8b 95 e4 fe ff ff    	mov    -0x11c(%ebp),%edx
    9323:	83 ec 08             	sub    $0x8,%esp
    9326:	a3 1c d0 00 00       	mov    %eax,0xd01c
    932b:	8b 87 80 59 03 00    	mov    0x35980(%edi),%eax
    9331:	89 15 20 d0 00 00    	mov    %edx,0xd020
    9337:	89 45 98             	mov    %eax,-0x68(%ebp)
    933a:	8b 87 84 59 03 00    	mov    0x35984(%edi),%eax
    9340:	89 45 9c             	mov    %eax,-0x64(%ebp)
    9343:	8b 87 88 59 03 00    	mov    0x35988(%edi),%eax
    9349:	89 45 a0             	mov    %eax,-0x60(%ebp)
    934c:	8b 87 8c 59 03 00    	mov    0x3598c(%edi),%eax
    9352:	89 45 a4             	mov    %eax,-0x5c(%ebp)
    9355:	8b 87 90 59 03 00    	mov    0x35990(%edi),%eax
    935b:	89 45 a8             	mov    %eax,-0x58(%ebp)
    935e:	8b 87 94 59 03 00    	mov    0x35994(%edi),%eax
    9364:	89 45 ac             	mov    %eax,-0x54(%ebp)
    9367:	8b 87 98 59 03 00    	mov    0x35998(%edi),%eax
    936d:	89 45 b0             	mov    %eax,-0x50(%ebp)
    9370:	8b 87 9c 59 03 00    	mov    0x3599c(%edi),%eax
    9376:	89 45 b4             	mov    %eax,-0x4c(%ebp)
    9379:	8b 45 9c             	mov    -0x64(%ebp),%eax
    937c:	83 e0 c7             	and    $0xffffffc7,%eax
    937f:	83 c8 20             	or     $0x20,%eax
    9382:	89 45 9c             	mov    %eax,-0x64(%ebp)
    9385:	8b 45 9c             	mov    -0x64(%ebp),%eax
    9388:	0f b7 c0             	movzwl %ax,%eax
    938b:	0d 00 00 08 00       	or     $0x80000,%eax
    9390:	89 45 9c             	mov    %eax,-0x64(%ebp)
    9393:	a1 20 d0 00 00       	mov    0xd020,%eax
    9398:	0b 05 1c d0 00 00    	or     0xd01c,%eax
    939e:	c6 45 9d 00          	movb   $0x0,-0x63(%ebp)
    93a2:	99                   	cltd   
    93a3:	89 45 a0             	mov    %eax,-0x60(%ebp)
    93a6:	89 55 a4             	mov    %edx,-0x5c(%ebp)
    93a9:	c6 45 9a 00          	movb   $0x0,-0x66(%ebp)
    93ad:	8b 45 98             	mov    -0x68(%ebp),%eax
    93b0:	80 e4 83             	and    $0x83,%ah
    93b3:	89 45 98             	mov    %eax,-0x68(%ebp)
    93b6:	8b 45 98             	mov    -0x68(%ebp),%eax
    93b9:	80 e4 fc             	and    $0xfc,%ah
    93bc:	89 45 98             	mov    %eax,-0x68(%ebp)
    93bf:	8b 45 9c             	mov    -0x64(%ebp),%eax
    93c2:	83 c8 06             	or     $0x6,%eax
    93c5:	89 45 9c             	mov    %eax,-0x64(%ebp)
    93c8:	8b 45 98             	mov    -0x68(%ebp),%eax
    93cb:	89 87 80 59 03 00    	mov    %eax,0x35980(%edi)
    93d1:	8b 45 9c             	mov    -0x64(%ebp),%eax
    93d4:	89 87 84 59 03 00    	mov    %eax,0x35984(%edi)
    93da:	8b 45 a0             	mov    -0x60(%ebp),%eax
    93dd:	89 87 88 59 03 00    	mov    %eax,0x35988(%edi)
    93e3:	8b 45 a4             	mov    -0x5c(%ebp),%eax
    93e6:	89 87 8c 59 03 00    	mov    %eax,0x3598c(%edi)
    93ec:	8b 45 a8             	mov    -0x58(%ebp),%eax
    93ef:	89 87 90 59 03 00    	mov    %eax,0x35990(%edi)
    93f5:	8b 45 ac             	mov    -0x54(%ebp),%eax
    93f8:	89 87 94 59 03 00    	mov    %eax,0x35994(%edi)
    93fe:	8b 45 b0             	mov    -0x50(%ebp),%eax
    9401:	89 87 98 59 03 00    	mov    %eax,0x35998(%edi)
    9407:	8b 45 b4             	mov    -0x4c(%ebp),%eax
    940a:	89 87 9c 59 03 00    	mov    %eax,0x3599c(%edi)
    9410:	69 c3 e0 03 00 00    	imul   $0x3e0,%ebx,%eax
    9416:	68 e0 03 00 00       	push   $0x3e0
    941b:	6a 00                	push   $0x0
    941d:	8d b8 40 1b 03 00    	lea    0x31b40(%eax),%edi
    9423:	57                   	push   %edi
    9424:	e8 67 0e 00 00       	call   a290 <memset>
    9429:	89 f8                	mov    %edi,%eax
    942b:	83 c4 14             	add    $0x14,%esp
    942e:	8d 8d 38 ff ff ff    	lea    -0xc8(%ebp),%ecx
    9434:	99                   	cltd   
    9435:	89 f0                	mov    %esi,%eax
    9437:	89 3c dd 40 99 03 00 	mov    %edi,0x39940(,%ebx,8)
    943e:	8d bd 18 ff ff ff    	lea    -0xe8(%ebp),%edi
    9444:	89 14 dd 44 99 03 00 	mov    %edx,0x39944(,%ebx,8)
    944b:	99                   	cltd   
    944c:	6a 00                	push   $0x0
    944e:	53                   	push   %ebx
    944f:	52                   	push   %edx
    9450:	56                   	push   %esi
    9451:	51                   	push   %ecx
    9452:	e8 a9 06 00 00       	call   9b00 <TRB_ADDRESS_DEVICE>
    9457:	68 24 d0 00 00       	push   $0xd024
    945c:	ff b5 44 ff ff ff    	push   -0xbc(%ebp)
    9462:	ff b5 40 ff ff ff    	push   -0xc0(%ebp)
    9468:	ff b5 3c ff ff ff    	push   -0xc4(%ebp)
    946e:	ff b5 38 ff ff ff    	push   -0xc8(%ebp)
    9474:	e8 67 05 00 00       	call   99e0 <xhcd_putTRB>
    9479:	8b 45 08             	mov    0x8(%ebp),%eax
    947c:	83 c4 30             	add    $0x30,%esp
    947f:	8b 40 0c             	mov    0xc(%eax),%eax
    9482:	c7 00 00 00 00 00    	movl   $0x0,(%eax)
    9488:	8d b4 26 00 00 00 00 	lea    0x0(%esi,%eiz,1),%esi
    948f:	90                   	nop
    9490:	83 ec 04             	sub    $0x4,%esp
    9493:	6a 01                	push   $0x1
    9495:	57                   	push   %edi
    9496:	68 00 d0 00 00       	push   $0xd000
    949b:	e8 d0 09 00 00       	call   9e70 <xhcd_readEvent>
    94a0:	83 c4 10             	add    $0x10,%esp
    94a3:	85 c0                	test   %eax,%eax
    94a5:	74 e9                	je     9490 <xhcd_initPort+0x3e0>
    94a7:	0f b6 85 23 ff ff ff 	movzbl -0xdd(%ebp),%eax
    94ae:	3c 01                	cmp    $0x1,%al
    94b0:	0f 85 48 02 00 00    	jne    96fe <xhcd_initPort+0x64e>
    94b6:	8b 85 24 ff ff ff    	mov    -0xdc(%ebp),%eax
    94bc:	83 ec 0c             	sub    $0xc,%esp
    94bf:	50                   	push   %eax
    94c0:	8b 85 20 ff ff ff    	mov    -0xe0(%ebp),%eax
    94c6:	50                   	push   %eax
    94c7:	8b 85 1c ff ff ff    	mov    -0xe4(%ebp),%eax
    94cd:	50                   	push   %eax
    94ce:	8b 85 18 ff ff ff    	mov    -0xe8(%ebp),%eax
    94d4:	50                   	push   %eax
    94d5:	68 44 b1 00 00       	push   $0xb144
    94da:	e8 b1 0b 00 00       	call   a090 <printf>
    94df:	83 c4 1c             	add    $0x1c,%esp
    94e2:	8d 45 b8             	lea    -0x48(%ebp),%eax
    94e5:	8d 95 f4 fe ff ff    	lea    -0x10c(%ebp),%edx
    94eb:	6a 08                	push   $0x8
    94ed:	52                   	push   %edx
    94ee:	50                   	push   %eax
    94ef:	e8 dc 06 00 00       	call   9bd0 <TD_GET_DESCRIPTOR>
    94f4:	68 1c d0 00 00       	push   $0xd01c
    94f9:	ff 75 e4             	push   -0x1c(%ebp)
    94fc:	ff 75 e0             	push   -0x20(%ebp)
    94ff:	ff 75 dc             	push   -0x24(%ebp)
    9502:	ff 75 d8             	push   -0x28(%ebp)
    9505:	ff 75 d4             	push   -0x2c(%ebp)
    9508:	ff 75 d0             	push   -0x30(%ebp)
    950b:	ff 75 cc             	push   -0x34(%ebp)
    950e:	ff 75 c8             	push   -0x38(%ebp)
    9511:	ff 75 c4             	push   -0x3c(%ebp)
    9514:	ff 75 c0             	push   -0x40(%ebp)
    9517:	ff 75 bc             	push   -0x44(%ebp)
    951a:	ff 75 b8             	push   -0x48(%ebp)
    951d:	e8 fe 03 00 00       	call   9920 <xhcd_putTD>
    9522:	83 c4 40             	add    $0x40,%esp
    9525:	80 bd dc fe ff ff 00 	cmpb   $0x0,-0x124(%ebp)
    952c:	0f 84 49 02 00 00    	je     977b <xhcd_initPort+0x6cb>
    9532:	8b 45 08             	mov    0x8(%ebp),%eax
    9535:	8b 40 0c             	mov    0xc(%eax),%eax
    9538:	8d 04 98             	lea    (%eax,%ebx,4),%eax
    953b:	c7 00 01 00 00 00    	movl   $0x1,(%eax)
    9541:	8d bd 48 ff ff ff    	lea    -0xb8(%ebp),%edi
    9547:	8d b4 26 00 00 00 00 	lea    0x0(%esi,%eiz,1),%esi
    954e:	66 90                	xchg   %ax,%ax
    9550:	83 ec 04             	sub    $0x4,%esp
    9553:	6a 01                	push   $0x1
    9555:	57                   	push   %edi
    9556:	68 00 d0 00 00       	push   $0xd000
    955b:	e8 10 09 00 00       	call   9e70 <xhcd_readEvent>
    9560:	83 c4 10             	add    $0x10,%esp
    9563:	85 c0                	test   %eax,%eax
    9565:	74 e9                	je     9550 <xhcd_initPort+0x4a0>
    9567:	0f b6 85 53 ff ff ff 	movzbl -0xad(%ebp),%eax
    956e:	3c 01                	cmp    $0x1,%al
    9570:	0f 85 f0 01 00 00    	jne    9766 <xhcd_initPort+0x6b6>
    9576:	69 fb e0 03 00 00    	imul   $0x3e0,%ebx,%edi
    957c:	0f b6 8d fb fe ff ff 	movzbl -0x105(%ebp),%ecx
    9583:	0f b7 97 66 1b 03 00 	movzwl 0x31b66(%edi),%edx
    958a:	8d 87 60 1b 03 00    	lea    0x31b60(%edi),%eax
    9590:	88 8d db fe ff ff    	mov    %cl,-0x125(%ebp)
    9596:	38 d1                	cmp    %dl,%cl
    9598:	0f 84 f0 00 00 00    	je     968e <xhcd_initPort+0x5de>
    959e:	89 d9                	mov    %ebx,%ecx
    95a0:	83 ec 04             	sub    $0x4,%esp
    95a3:	c1 e1 0a             	shl    $0xa,%ecx
    95a6:	8d 91 80 59 03 00    	lea    0x35980(%ecx),%edx
    95ac:	89 8d dc fe ff ff    	mov    %ecx,-0x124(%ebp)
    95b2:	8b 8f 60 1b 03 00    	mov    0x31b60(%edi),%ecx
    95b8:	8b bd dc fe ff ff    	mov    -0x124(%ebp),%edi
    95be:	89 8f 80 59 03 00    	mov    %ecx,0x35980(%edi)
    95c4:	8b 48 04             	mov    0x4(%eax),%ecx
    95c7:	0f b6 bd db fe ff ff 	movzbl -0x125(%ebp),%edi
    95ce:	89 4a 04             	mov    %ecx,0x4(%edx)
    95d1:	8b 48 08             	mov    0x8(%eax),%ecx
    95d4:	c1 e7 10             	shl    $0x10,%edi
    95d7:	89 4a 08             	mov    %ecx,0x8(%edx)
    95da:	8b 48 0c             	mov    0xc(%eax),%ecx
    95dd:	89 4a 0c             	mov    %ecx,0xc(%edx)
    95e0:	8b 48 10             	mov    0x10(%eax),%ecx
    95e3:	89 4a 10             	mov    %ecx,0x10(%edx)
    95e6:	8b 48 14             	mov    0x14(%eax),%ecx
    95e9:	89 4a 14             	mov    %ecx,0x14(%edx)
    95ec:	8b 48 18             	mov    0x18(%eax),%ecx
    95ef:	89 4a 18             	mov    %ecx,0x18(%edx)
    95f2:	8b 40 1c             	mov    0x1c(%eax),%eax
    95f5:	89 42 1c             	mov    %eax,0x1c(%edx)
    95f8:	8b 42 04             	mov    0x4(%edx),%eax
    95fb:	0f b7 c0             	movzwl %ax,%eax
    95fe:	09 f8                	or     %edi,%eax
    9600:	89 42 04             	mov    %eax,0x4(%edx)
    9603:	6a 20                	push   $0x20
    9605:	6a 00                	push   $0x0
    9607:	56                   	push   %esi
    9608:	e8 83 0c 00 00       	call   a290 <memset>
    960d:	8b 8d dc fe ff ff    	mov    -0x124(%ebp),%ecx
    9613:	8d 85 68 ff ff ff    	lea    -0x98(%ebp),%eax
    9619:	83 c4 0c             	add    $0xc,%esp
    961c:	c7 81 44 59 03 00 02 	movl   $0x2,0x35944(%ecx)
    9623:	00 00 00 
    9626:	53                   	push   %ebx
    9627:	56                   	push   %esi
    9628:	8d b5 58 ff ff ff    	lea    -0xa8(%ebp),%esi
    962e:	50                   	push   %eax
    962f:	e8 3c 05 00 00       	call   9b70 <TRB_EVALUATE_CONTEXT>
    9634:	68 24 d0 00 00       	push   $0xd024
    9639:	ff b5 74 ff ff ff    	push   -0x8c(%ebp)
    963f:	ff b5 70 ff ff ff    	push   -0x90(%ebp)
    9645:	ff b5 6c ff ff ff    	push   -0x94(%ebp)
    964b:	ff b5 68 ff ff ff    	push   -0x98(%ebp)
    9651:	e8 8a 03 00 00       	call   99e0 <xhcd_putTRB>
    9656:	8b 45 08             	mov    0x8(%ebp),%eax
    9659:	83 c4 20             	add    $0x20,%esp
    965c:	8b 40 0c             	mov    0xc(%eax),%eax
    965f:	c7 00 00 00 00 00    	movl   $0x0,(%eax)
    9665:	8d 76 00             	lea    0x0(%esi),%esi
    9668:	83 ec 04             	sub    $0x4,%esp
    966b:	6a 01                	push   $0x1
    966d:	56                   	push   %esi
    966e:	68 00 d0 00 00       	push   $0xd000
    9673:	e8 f8 07 00 00       	call   9e70 <xhcd_readEvent>
    9678:	83 c4 10             	add    $0x10,%esp
    967b:	85 c0                	test   %eax,%eax
    967d:	74 e9                	je     9668 <xhcd_initPort+0x5b8>
    967f:	0f b6 85 63 ff ff ff 	movzbl -0x9d(%ebp),%eax
    9686:	3c 01                	cmp    $0x1,%al
    9688:	0f 85 c3 00 00 00    	jne    9751 <xhcd_initPort+0x6a1>
    968e:	69 c3 e0 03 00 00    	imul   $0x3e0,%ebx,%eax
    9694:	83 ec 08             	sub    $0x8,%esp
    9697:	05 60 1b 03 00       	add    $0x31b60,%eax
    969c:	0f b7 40 06          	movzwl 0x6(%eax),%eax
    96a0:	0f b6 c0             	movzbl %al,%eax
    96a3:	50                   	push   %eax
    96a4:	68 04 b2 00 00       	push   $0xb204
    96a9:	e8 e2 09 00 00       	call   a090 <printf>
    96ae:	83 c4 10             	add    $0x10,%esp
    96b1:	b8 01 00 00 00       	mov    $0x1,%eax
    96b6:	e9 ff fa ff ff       	jmp    91ba <xhcd_initPort+0x10a>
    96bb:	8d 74 26 00          	lea    0x0(%esi,%eiz,1),%esi
    96bf:	90                   	nop
    96c0:	8b 85 14 ff ff ff    	mov    -0xec(%ebp),%eax
    96c6:	83 ec 08             	sub    $0x8,%esp
    96c9:	c1 e8 0a             	shr    $0xa,%eax
    96cc:	83 e0 3f             	and    $0x3f,%eax
    96cf:	50                   	push   %eax
    96d0:	8b 85 14 ff ff ff    	mov    -0xec(%ebp),%eax
    96d6:	50                   	push   %eax
    96d7:	8b 85 10 ff ff ff    	mov    -0xf0(%ebp),%eax
    96dd:	50                   	push   %eax
    96de:	8b 85 0c ff ff ff    	mov    -0xf4(%ebp),%eax
    96e4:	50                   	push   %eax
    96e5:	8b 85 08 ff ff ff    	mov    -0xf8(%ebp),%eax
    96eb:	50                   	push   %eax
    96ec:	68 b0 b0 00 00       	push   $0xb0b0
    96f1:	e8 9a 09 00 00       	call   a090 <printf>
    96f6:	83 c4 20             	add    $0x20,%esp
    96f9:	e9 b7 fa ff ff       	jmp    91b5 <xhcd_initPort+0x105>
    96fe:	0f b6 85 23 ff ff ff 	movzbl -0xdd(%ebp),%eax
    9705:	83 ec 08             	sub    $0x8,%esp
    9708:	50                   	push   %eax
    9709:	8b 85 24 ff ff ff    	mov    -0xdc(%ebp),%eax
    970f:	50                   	push   %eax
    9710:	8b 85 20 ff ff ff    	mov    -0xe0(%ebp),%eax
    9716:	50                   	push   %eax
    9717:	8b 85 1c ff ff ff    	mov    -0xe4(%ebp),%eax
    971d:	50                   	push   %eax
    971e:	8b 85 18 ff ff ff    	mov    -0xe8(%ebp),%eax
    9724:	50                   	push   %eax
    9725:	68 04 b1 00 00       	push   $0xb104
    972a:	e8 61 09 00 00       	call   a090 <printf>
    972f:	83 c4 20             	add    $0x20,%esp
    9732:	8d 65 f4             	lea    -0xc(%ebp),%esp
    9735:	31 c0                	xor    %eax,%eax
    9737:	5b                   	pop    %ebx
    9738:	5e                   	pop    %esi
    9739:	5f                   	pop    %edi
    973a:	5d                   	pop    %ebp
    973b:	c3                   	ret    
    973c:	83 ec 0c             	sub    $0xc,%esp
    973f:	68 78 b5 00 00       	push   $0xb578
    9744:	e8 47 09 00 00       	call   a090 <printf>
    9749:	83 c4 10             	add    $0x10,%esp
    974c:	e9 64 fa ff ff       	jmp    91b5 <xhcd_initPort+0x105>
    9751:	83 ec 0c             	sub    $0xc,%esp
    9754:	68 dc b1 00 00       	push   $0xb1dc
    9759:	e8 32 09 00 00       	call   a090 <printf>
    975e:	83 c4 10             	add    $0x10,%esp
    9761:	e9 4b ff ff ff       	jmp    96b1 <xhcd_initPort+0x601>
    9766:	83 ec 0c             	sub    $0xc,%esp
    9769:	68 b4 b1 00 00       	push   $0xb1b4
    976e:	e8 1d 09 00 00       	call   a090 <printf>
    9773:	83 c4 10             	add    $0x10,%esp
    9776:	e9 36 ff ff ff       	jmp    96b1 <xhcd_initPort+0x601>
    977b:	83 ec 0c             	sub    $0xc,%esp
    977e:	68 80 b1 00 00       	push   $0xb180
    9783:	e8 08 09 00 00       	call   a090 <printf>
    9788:	83 c4 10             	add    $0x10,%esp
    978b:	e9 b1 fd ff ff       	jmp    9541 <xhcd_initPort+0x491>

00009790 <xhcd_isPortEnabled>:
    9790:	55                   	push   %ebp
    9791:	89 e5                	mov    %esp,%ebp
    9793:	83 ec 10             	sub    $0x10,%esp
    9796:	8b 45 08             	mov    0x8(%ebp),%eax
    9799:	8b 50 08             	mov    0x8(%eax),%edx
    979c:	8b 45 0c             	mov    0xc(%ebp),%eax
    979f:	83 c0 40             	add    $0x40,%eax
    97a2:	c1 e0 04             	shl    $0x4,%eax
    97a5:	01 d0                	add    %edx,%eax
    97a7:	8b 00                	mov    (%eax),%eax
    97a9:	89 45 fc             	mov    %eax,-0x4(%ebp)
    97ac:	8b 55 fc             	mov    -0x4(%ebp),%edx
    97af:	31 c0                	xor    %eax,%eax
    97b1:	83 e2 02             	and    $0x2,%edx
    97b4:	75 0a                	jne    97c0 <xhcd_isPortEnabled+0x30>
    97b6:	c9                   	leave  
    97b7:	c3                   	ret    
    97b8:	8d b4 26 00 00 00 00 	lea    0x0(%esi,%eiz,1),%esi
    97bf:	90                   	nop
    97c0:	8b 55 fc             	mov    -0x4(%ebp),%edx
    97c3:	83 e2 10             	and    $0x10,%edx
    97c6:	75 ee                	jne    97b6 <xhcd_isPortEnabled+0x26>
    97c8:	8b 45 fc             	mov    -0x4(%ebp),%eax
    97cb:	c9                   	leave  
    97cc:	a9 e0 01 00 00       	test   $0x1e0,%eax
    97d1:	0f 94 c0             	sete   %al
    97d4:	0f b6 c0             	movzbl %al,%eax
    97d7:	c3                   	ret    
    97d8:	66 90                	xchg   %ax,%ax
    97da:	66 90                	xchg   %ax,%ax
    97dc:	66 90                	xchg   %ax,%ax
    97de:	66 90                	xchg   %ax,%ax

000097e0 <xhcd_newRing>:
    97e0:	55                   	push   %ebp
    97e1:	89 e5                	mov    %esp,%ebp
    97e3:	57                   	push   %edi
    97e4:	56                   	push   %esi
    97e5:	53                   	push   %ebx
    97e6:	83 ec 2c             	sub    $0x2c,%esp
    97e9:	8b 7d 0c             	mov    0xc(%ebp),%edi
    97ec:	8b 75 10             	mov    0x10(%ebp),%esi
    97ef:	8b 1f                	mov    (%edi),%ebx
    97f1:	8b 57 04             	mov    0x4(%edi),%edx
    97f4:	89 5d d4             	mov    %ebx,-0x2c(%ebp)
    97f7:	83 fe 01             	cmp    $0x1,%esi
    97fa:	0f 8e 81 00 00 00    	jle    9881 <xhcd_newRing+0xa1>
    9800:	8d 46 ff             	lea    -0x1(%esi),%eax
    9803:	89 fb                	mov    %edi,%ebx
    9805:	31 c9                	xor    %ecx,%ecx
    9807:	89 45 d8             	mov    %eax,-0x28(%ebp)
    980a:	8d b6 00 00 00 00    	lea    0x0(%esi),%esi
    9810:	8b 73 08             	mov    0x8(%ebx),%esi
    9813:	8b 53 10             	mov    0x10(%ebx),%edx
    9816:	83 ec 04             	sub    $0x4,%esp
    9819:	89 4d dc             	mov    %ecx,-0x24(%ebp)
    981c:	8b 43 0c             	mov    0xc(%ebx),%eax
    981f:	8b 3b                	mov    (%ebx),%edi
    9821:	83 c3 0c             	add    $0xc,%ebx
    9824:	c1 e6 04             	shl    $0x4,%esi
    9827:	89 55 e0             	mov    %edx,-0x20(%ebp)
    982a:	89 45 e4             	mov    %eax,-0x1c(%ebp)
    982d:	56                   	push   %esi
    982e:	6a 00                	push   $0x0
    9830:	57                   	push   %edi
    9831:	e8 5a 0a 00 00       	call   a290 <memset>
    9836:	8b 4d e4             	mov    -0x1c(%ebp),%ecx
    9839:	8b 55 e0             	mov    -0x20(%ebp),%edx
    983c:	8d 44 37 f0          	lea    -0x10(%edi,%esi,1),%eax
    9840:	83 c4 10             	add    $0x10,%esp
    9843:	89 08                	mov    %ecx,(%eax)
    9845:	89 50 04             	mov    %edx,0x4(%eax)
    9848:	0f b6 50 0c          	movzbl 0xc(%eax),%edx
    984c:	83 ca 01             	or     $0x1,%edx
    984f:	88 50 0c             	mov    %dl,0xc(%eax)
    9852:	0f b6 50 0c          	movzbl 0xc(%eax),%edx
    9856:	83 e2 fd             	and    $0xfffffffd,%edx
    9859:	88 50 0c             	mov    %dl,0xc(%eax)
    985c:	0f b6 50 0d          	movzbl 0xd(%eax),%edx
    9860:	83 e2 03             	and    $0x3,%edx
    9863:	83 ca 18             	or     $0x18,%edx
    9866:	88 50 0d             	mov    %dl,0xd(%eax)
    9869:	8b 4d dc             	mov    -0x24(%ebp),%ecx
    986c:	8b 45 d8             	mov    -0x28(%ebp),%eax
    986f:	83 c1 01             	add    $0x1,%ecx
    9872:	39 c1                	cmp    %eax,%ecx
    9874:	75 9a                	jne    9810 <xhcd_newRing+0x30>
    9876:	8b 7d 0c             	mov    0xc(%ebp),%edi
    9879:	8b 75 10             	mov    0x10(%ebp),%esi
    987c:	8b 1f                	mov    (%edi),%ebx
    987e:	8b 57 04             	mov    0x4(%edi),%edx
    9881:	8d 04 76             	lea    (%esi,%esi,2),%eax
    9884:	83 ec 04             	sub    $0x4,%esp
    9887:	89 55 e4             	mov    %edx,-0x1c(%ebp)
    988a:	8d 44 87 f4          	lea    -0xc(%edi,%eax,4),%eax
    988e:	8b 70 08             	mov    0x8(%eax),%esi
    9891:	8b 38                	mov    (%eax),%edi
    9893:	c1 e6 04             	shl    $0x4,%esi
    9896:	56                   	push   %esi
    9897:	6a 00                	push   $0x0
    9899:	57                   	push   %edi
    989a:	e8 f1 09 00 00       	call   a290 <memset>
    989f:	8b 55 e4             	mov    -0x1c(%ebp),%edx
    98a2:	8d 44 37 f0          	lea    -0x10(%edi,%esi,1),%eax
    98a6:	89 18                	mov    %ebx,(%eax)
    98a8:	89 50 04             	mov    %edx,0x4(%eax)
    98ab:	0f b6 50 0c          	movzbl 0xc(%eax),%edx
    98af:	83 ca 01             	or     $0x1,%edx
    98b2:	88 50 0c             	mov    %dl,0xc(%eax)
    98b5:	0f b6 50 0c          	movzbl 0xc(%eax),%edx
    98b9:	83 ca 02             	or     $0x2,%edx
    98bc:	88 50 0c             	mov    %dl,0xc(%eax)
    98bf:	0f b6 50 0d          	movzbl 0xd(%eax),%edx
    98c3:	83 e2 03             	and    $0x3,%edx
    98c6:	83 ca 18             	or     $0x18,%edx
    98c9:	88 50 0d             	mov    %dl,0xd(%eax)
    98cc:	8b 45 08             	mov    0x8(%ebp),%eax
    98cf:	8b 7d d4             	mov    -0x2c(%ebp),%edi
    98d2:	c7 00 01 00 00 00    	movl   $0x1,(%eax)
    98d8:	89 78 04             	mov    %edi,0x4(%eax)
    98db:	8d 65 f4             	lea    -0xc(%ebp),%esp
    98de:	5b                   	pop    %ebx
    98df:	5e                   	pop    %esi
    98e0:	5f                   	pop    %edi
    98e1:	5d                   	pop    %ebp
    98e2:	c2 04 00             	ret    $0x4
    98e5:	8d b4 26 00 00 00 00 	lea    0x0(%esi,%eiz,1),%esi
    98ec:	8d 74 26 00          	lea    0x0(%esi,%eiz,1),%esi

000098f0 <xhcd_attachCommandRing>:
    98f0:	55                   	push   %ebp
    98f1:	89 e5                	mov    %esp,%ebp
    98f3:	56                   	push   %esi
    98f4:	53                   	push   %ebx
    98f5:	8b 75 0c             	mov    0xc(%ebp),%esi
    98f8:	8b 55 08             	mov    0x8(%ebp),%edx
    98fb:	8b 46 04             	mov    0x4(%esi),%eax
    98fe:	89 c3                	mov    %eax,%ebx
    9900:	0b 06                	or     (%esi),%eax
    9902:	c1 fb 1f             	sar    $0x1f,%ebx
    9905:	89 42 18             	mov    %eax,0x18(%edx)
    9908:	b8 01 00 00 00       	mov    $0x1,%eax
    990d:	89 5a 1c             	mov    %ebx,0x1c(%edx)
    9910:	5b                   	pop    %ebx
    9911:	5e                   	pop    %esi
    9912:	5d                   	pop    %ebp
    9913:	c3                   	ret    
    9914:	8d b4 26 00 00 00 00 	lea    0x0(%esi,%eiz,1),%esi
    991b:	8d 74 26 00          	lea    0x0(%esi,%eiz,1),%esi
    991f:	90                   	nop

00009920 <xhcd_putTD>:
    9920:	55                   	push   %ebp
    9921:	89 e5                	mov    %esp,%ebp
    9923:	57                   	push   %edi
    9924:	56                   	push   %esi
    9925:	53                   	push   %ebx
    9926:	83 ec 1c             	sub    $0x1c,%esp
    9929:	c7 45 dc 00 00 00 00 	movl   $0x0,-0x24(%ebp)
    9930:	8b 4d 38             	mov    0x38(%ebp),%ecx
    9933:	8b 45 dc             	mov    -0x24(%ebp),%eax
    9936:	c1 e0 04             	shl    $0x4,%eax
    9939:	8b 5c 05 08          	mov    0x8(%ebp,%eax,1),%ebx
    993d:	89 5d e0             	mov    %ebx,-0x20(%ebp)
    9940:	8b 5c 05 0c          	mov    0xc(%ebp,%eax,1),%ebx
    9944:	89 5d e4             	mov    %ebx,-0x1c(%ebp)
    9947:	8b 5c 05 10          	mov    0x10(%ebp,%eax,1),%ebx
    994b:	89 5d e8             	mov    %ebx,-0x18(%ebp)
    994e:	8b 44 05 14          	mov    0x14(%ebp,%eax,1),%eax
    9952:	8b 19                	mov    (%ecx),%ebx
    9954:	89 45 ec             	mov    %eax,-0x14(%ebp)
    9957:	8b 45 ec             	mov    -0x14(%ebp),%eax
    995a:	89 df                	mov    %ebx,%edi
    995c:	89 de                	mov    %ebx,%esi
    995e:	83 e7 01             	and    $0x1,%edi
    9961:	83 e0 fe             	and    $0xfffffffe,%eax
    9964:	83 e6 01             	and    $0x1,%esi
    9967:	09 f8                	or     %edi,%eax
    9969:	89 45 ec             	mov    %eax,-0x14(%ebp)
    996c:	8b 7d e0             	mov    -0x20(%ebp),%edi
    996f:	8b 41 04             	mov    0x4(%ecx),%eax
    9972:	89 38                	mov    %edi,(%eax)
    9974:	8b 7d e4             	mov    -0x1c(%ebp),%edi
    9977:	89 78 04             	mov    %edi,0x4(%eax)
    997a:	8b 7d e8             	mov    -0x18(%ebp),%edi
    997d:	89 78 08             	mov    %edi,0x8(%eax)
    9980:	8b 7d ec             	mov    -0x14(%ebp),%edi
    9983:	89 78 0c             	mov    %edi,0xc(%eax)
    9986:	0f b6 50 1d          	movzbl 0x1d(%eax),%edx
    998a:	8d 78 10             	lea    0x10(%eax),%edi
    998d:	89 79 04             	mov    %edi,0x4(%ecx)
    9990:	c0 ea 02             	shr    $0x2,%dl
    9993:	80 fa 06             	cmp    $0x6,%dl
    9996:	75 24                	jne    99bc <xhcd_putTD+0x9c>
    9998:	0f b6 78 1c          	movzbl 0x1c(%eax),%edi
    999c:	83 e7 fe             	and    $0xfffffffe,%edi
    999f:	09 fe                	or     %edi,%esi
    99a1:	89 f2                	mov    %esi,%edx
    99a3:	88 50 1c             	mov    %dl,0x1c(%eax)
    99a6:	8b 70 10             	mov    0x10(%eax),%esi
    99a9:	8b 78 14             	mov    0x14(%eax),%edi
    99ac:	0f b6 40 1c          	movzbl 0x1c(%eax),%eax
    99b0:	89 71 04             	mov    %esi,0x4(%ecx)
    99b3:	d0 e8                	shr    %al
    99b5:	83 e0 01             	and    $0x1,%eax
    99b8:	31 d8                	xor    %ebx,%eax
    99ba:	89 01                	mov    %eax,(%ecx)
    99bc:	83 45 dc 01          	addl   $0x1,-0x24(%ebp)
    99c0:	8b 45 dc             	mov    -0x24(%ebp),%eax
    99c3:	83 f8 03             	cmp    $0x3,%eax
    99c6:	0f 85 67 ff ff ff    	jne    9933 <xhcd_putTD+0x13>
    99cc:	83 c4 1c             	add    $0x1c,%esp
    99cf:	5b                   	pop    %ebx
    99d0:	5e                   	pop    %esi
    99d1:	5f                   	pop    %edi
    99d2:	5d                   	pop    %ebp
    99d3:	c3                   	ret    
    99d4:	8d b4 26 00 00 00 00 	lea    0x0(%esi,%eiz,1),%esi
    99db:	8d 74 26 00          	lea    0x0(%esi,%eiz,1),%esi
    99df:	90                   	nop

000099e0 <xhcd_putTRB>:
    99e0:	55                   	push   %ebp
    99e1:	89 e5                	mov    %esp,%ebp
    99e3:	57                   	push   %edi
    99e4:	56                   	push   %esi
    99e5:	53                   	push   %ebx
    99e6:	8b 55 18             	mov    0x18(%ebp),%edx
    99e9:	8b 45 14             	mov    0x14(%ebp),%eax
    99ec:	8b 0a                	mov    (%edx),%ecx
    99ee:	83 e0 fe             	and    $0xfffffffe,%eax
    99f1:	89 ce                	mov    %ecx,%esi
    99f3:	89 cb                	mov    %ecx,%ebx
    99f5:	83 e6 01             	and    $0x1,%esi
    99f8:	83 e3 01             	and    $0x1,%ebx
    99fb:	09 f0                	or     %esi,%eax
    99fd:	89 df                	mov    %ebx,%edi
    99ff:	89 45 14             	mov    %eax,0x14(%ebp)
    9a02:	8b 75 08             	mov    0x8(%ebp),%esi
    9a05:	8b 42 04             	mov    0x4(%edx),%eax
    9a08:	89 30                	mov    %esi,(%eax)
    9a0a:	8b 75 0c             	mov    0xc(%ebp),%esi
    9a0d:	89 70 04             	mov    %esi,0x4(%eax)
    9a10:	8b 75 10             	mov    0x10(%ebp),%esi
    9a13:	89 70 08             	mov    %esi,0x8(%eax)
    9a16:	8b 75 14             	mov    0x14(%ebp),%esi
    9a19:	89 70 0c             	mov    %esi,0xc(%eax)
    9a1c:	0f b6 58 1d          	movzbl 0x1d(%eax),%ebx
    9a20:	8d 70 10             	lea    0x10(%eax),%esi
    9a23:	89 72 04             	mov    %esi,0x4(%edx)
    9a26:	c0 eb 02             	shr    $0x2,%bl
    9a29:	80 fb 06             	cmp    $0x6,%bl
    9a2c:	75 24                	jne    9a52 <xhcd_putTRB+0x72>
    9a2e:	0f b6 70 1c          	movzbl 0x1c(%eax),%esi
    9a32:	83 e6 fe             	and    $0xfffffffe,%esi
    9a35:	09 f7                	or     %esi,%edi
    9a37:	89 fb                	mov    %edi,%ebx
    9a39:	88 58 1c             	mov    %bl,0x1c(%eax)
    9a3c:	8b 58 10             	mov    0x10(%eax),%ebx
    9a3f:	8b 70 14             	mov    0x14(%eax),%esi
    9a42:	0f b6 40 1c          	movzbl 0x1c(%eax),%eax
    9a46:	89 5a 04             	mov    %ebx,0x4(%edx)
    9a49:	d0 e8                	shr    %al
    9a4b:	83 e0 01             	and    $0x1,%eax
    9a4e:	31 c8                	xor    %ecx,%eax
    9a50:	89 02                	mov    %eax,(%edx)
    9a52:	5b                   	pop    %ebx
    9a53:	5e                   	pop    %esi
    9a54:	5f                   	pop    %edi
    9a55:	5d                   	pop    %ebp
    9a56:	c3                   	ret    
    9a57:	8d b4 26 00 00 00 00 	lea    0x0(%esi,%eiz,1),%esi
    9a5e:	66 90                	xchg   %ax,%ax

00009a60 <TRB_NOOP>:
    9a60:	55                   	push   %ebp
    9a61:	89 e5                	mov    %esp,%ebp
    9a63:	83 ec 10             	sub    $0x10,%esp
    9a66:	c7 45 f0 00 00 00 00 	movl   $0x0,-0x10(%ebp)
    9a6d:	8b 45 08             	mov    0x8(%ebp),%eax
    9a70:	c7 45 f4 00 00 00 00 	movl   $0x0,-0xc(%ebp)
    9a77:	c7 45 f8 00 00 00 00 	movl   $0x0,-0x8(%ebp)
    9a7e:	c7 45 fc 00 00 00 00 	movl   $0x0,-0x4(%ebp)
    9a85:	c7 45 fc 00 5c 00 00 	movl   $0x5c00,-0x4(%ebp)
    9a8c:	8b 55 f0             	mov    -0x10(%ebp),%edx
    9a8f:	89 10                	mov    %edx,(%eax)
    9a91:	8b 55 f4             	mov    -0xc(%ebp),%edx
    9a94:	89 50 04             	mov    %edx,0x4(%eax)
    9a97:	8b 55 f8             	mov    -0x8(%ebp),%edx
    9a9a:	89 50 08             	mov    %edx,0x8(%eax)
    9a9d:	8b 55 fc             	mov    -0x4(%ebp),%edx
    9aa0:	89 50 0c             	mov    %edx,0xc(%eax)
    9aa3:	c9                   	leave  
    9aa4:	c2 04 00             	ret    $0x4
    9aa7:	8d b4 26 00 00 00 00 	lea    0x0(%esi,%eiz,1),%esi
    9aae:	66 90                	xchg   %ax,%ax

00009ab0 <TRB_ENABLE_SLOT>:
    9ab0:	55                   	push   %ebp
    9ab1:	89 e5                	mov    %esp,%ebp
    9ab3:	83 ec 10             	sub    $0x10,%esp
    9ab6:	8b 55 0c             	mov    0xc(%ebp),%edx
    9ab9:	8b 45 08             	mov    0x8(%ebp),%eax
    9abc:	c7 45 f0 00 00 00 00 	movl   $0x0,-0x10(%ebp)
    9ac3:	c7 45 f4 00 00 00 00 	movl   $0x0,-0xc(%ebp)
    9aca:	c1 e2 10             	shl    $0x10,%edx
    9acd:	c7 45 f8 00 00 00 00 	movl   $0x0,-0x8(%ebp)
    9ad4:	80 ce 24             	or     $0x24,%dh
    9ad7:	c7 45 fc 00 00 00 00 	movl   $0x0,-0x4(%ebp)
    9ade:	89 55 fc             	mov    %edx,-0x4(%ebp)
    9ae1:	8b 55 f0             	mov    -0x10(%ebp),%edx
    9ae4:	89 10                	mov    %edx,(%eax)
    9ae6:	8b 55 f4             	mov    -0xc(%ebp),%edx
    9ae9:	89 50 04             	mov    %edx,0x4(%eax)
    9aec:	8b 55 f8             	mov    -0x8(%ebp),%edx
    9aef:	89 50 08             	mov    %edx,0x8(%eax)
    9af2:	8b 55 fc             	mov    -0x4(%ebp),%edx
    9af5:	89 50 0c             	mov    %edx,0xc(%eax)
    9af8:	c9                   	leave  
    9af9:	c2 04 00             	ret    $0x4
    9afc:	8d 74 26 00          	lea    0x0(%esi,%eiz,1),%esi

00009b00 <TRB_ADDRESS_DEVICE>:
    9b00:	55                   	push   %ebp
    9b01:	89 e5                	mov    %esp,%ebp
    9b03:	83 ec 10             	sub    $0x10,%esp
    9b06:	8b 45 0c             	mov    0xc(%ebp),%eax
    9b09:	8b 4d 14             	mov    0x14(%ebp),%ecx
    9b0c:	c7 45 f0 00 00 00 00 	movl   $0x0,-0x10(%ebp)
    9b13:	c7 45 f4 00 00 00 00 	movl   $0x0,-0xc(%ebp)
    9b1a:	8b 55 08             	mov    0x8(%ebp),%edx
    9b1d:	c7 45 f8 00 00 00 00 	movl   $0x0,-0x8(%ebp)
    9b24:	c1 e1 18             	shl    $0x18,%ecx
    9b27:	c7 45 fc 00 00 00 00 	movl   $0x0,-0x4(%ebp)
    9b2e:	89 45 f0             	mov    %eax,-0x10(%ebp)
    9b31:	8b 45 10             	mov    0x10(%ebp),%eax
    9b34:	89 45 f4             	mov    %eax,-0xc(%ebp)
    9b37:	8b 45 18             	mov    0x18(%ebp),%eax
    9b3a:	c1 e0 09             	shl    $0x9,%eax
    9b3d:	09 c8                	or     %ecx,%eax
    9b3f:	80 cc 2c             	or     $0x2c,%ah
    9b42:	89 45 fc             	mov    %eax,-0x4(%ebp)
    9b45:	8b 45 f0             	mov    -0x10(%ebp),%eax
    9b48:	89 02                	mov    %eax,(%edx)
    9b4a:	8b 45 f4             	mov    -0xc(%ebp),%eax
    9b4d:	89 42 04             	mov    %eax,0x4(%edx)
    9b50:	8b 45 f8             	mov    -0x8(%ebp),%eax
    9b53:	89 42 08             	mov    %eax,0x8(%edx)
    9b56:	8b 45 fc             	mov    -0x4(%ebp),%eax
    9b59:	89 42 0c             	mov    %eax,0xc(%edx)
    9b5c:	89 d0                	mov    %edx,%eax
    9b5e:	c9                   	leave  
    9b5f:	c2 04 00             	ret    $0x4
    9b62:	8d b4 26 00 00 00 00 	lea    0x0(%esi,%eiz,1),%esi
    9b69:	8d b4 26 00 00 00 00 	lea    0x0(%esi,%eiz,1),%esi

00009b70 <TRB_EVALUATE_CONTEXT>:
    9b70:	55                   	push   %ebp
    9b71:	89 e5                	mov    %esp,%ebp
    9b73:	53                   	push   %ebx
    9b74:	83 ec 14             	sub    $0x14,%esp
    9b77:	8b 55 0c             	mov    0xc(%ebp),%edx
    9b7a:	8b 45 08             	mov    0x8(%ebp),%eax
    9b7d:	c7 45 e8 00 00 00 00 	movl   $0x0,-0x18(%ebp)
    9b84:	c7 45 ec 00 00 00 00 	movl   $0x0,-0x14(%ebp)
    9b8b:	c7 45 f0 00 00 00 00 	movl   $0x0,-0x10(%ebp)
    9b92:	89 d3                	mov    %edx,%ebx
    9b94:	c7 45 f4 00 00 00 00 	movl   $0x0,-0xc(%ebp)
    9b9b:	c1 fb 1f             	sar    $0x1f,%ebx
    9b9e:	89 55 e8             	mov    %edx,-0x18(%ebp)
    9ba1:	8b 55 10             	mov    0x10(%ebp),%edx
    9ba4:	89 5d ec             	mov    %ebx,-0x14(%ebp)
    9ba7:	8b 5d fc             	mov    -0x4(%ebp),%ebx
    9baa:	c1 e2 18             	shl    $0x18,%edx
    9bad:	80 ce 34             	or     $0x34,%dh
    9bb0:	89 55 f4             	mov    %edx,-0xc(%ebp)
    9bb3:	8b 55 e8             	mov    -0x18(%ebp),%edx
    9bb6:	89 10                	mov    %edx,(%eax)
    9bb8:	8b 55 ec             	mov    -0x14(%ebp),%edx
    9bbb:	89 50 04             	mov    %edx,0x4(%eax)
    9bbe:	8b 55 f0             	mov    -0x10(%ebp),%edx
    9bc1:	89 50 08             	mov    %edx,0x8(%eax)
    9bc4:	8b 55 f4             	mov    -0xc(%ebp),%edx
    9bc7:	89 50 0c             	mov    %edx,0xc(%eax)
    9bca:	c9                   	leave  
    9bcb:	c2 04 00             	ret    $0x4
    9bce:	66 90                	xchg   %ax,%ax

00009bd0 <TD_GET_DESCRIPTOR>:
    9bd0:	55                   	push   %ebp
    9bd1:	89 e5                	mov    %esp,%ebp
    9bd3:	53                   	push   %ebx
    9bd4:	31 db                	xor    %ebx,%ebx
    9bd6:	83 ec 34             	sub    $0x34,%esp
    9bd9:	8b 4d 10             	mov    0x10(%ebp),%ecx
    9bdc:	8b 45 08             	mov    0x8(%ebp),%eax
    9bdf:	c7 45 c8 00 00 00 00 	movl   $0x0,-0x38(%ebp)
    9be6:	c7 45 cc 00 00 00 00 	movl   $0x0,-0x34(%ebp)
    9bed:	c7 45 d0 00 00 00 00 	movl   $0x0,-0x30(%ebp)
    9bf4:	c7 45 d4 00 00 00 00 	movl   $0x0,-0x2c(%ebp)
    9bfb:	8b 55 d4             	mov    -0x2c(%ebp),%edx
    9bfe:	80 e6 03             	and    $0x3,%dh
    9c01:	80 ce 08             	or     $0x8,%dh
    9c04:	89 55 d4             	mov    %edx,-0x2c(%ebp)
    9c07:	8b 55 d4             	mov    -0x2c(%ebp),%edx
    9c0a:	81 ca 00 00 03 00    	or     $0x30000,%edx
    9c10:	89 55 d4             	mov    %edx,-0x2c(%ebp)
    9c13:	8b 55 d0             	mov    -0x30(%ebp),%edx
    9c16:	81 e2 00 00 fe ff    	and    $0xfffe0000,%edx
    9c1c:	83 ca 08             	or     $0x8,%edx
    9c1f:	89 55 d0             	mov    %edx,-0x30(%ebp)
    9c22:	8b 55 d4             	mov    -0x2c(%ebp),%edx
    9c25:	83 e2 df             	and    $0xffffffdf,%edx
    9c28:	89 55 d4             	mov    %edx,-0x2c(%ebp)
    9c2b:	8b 55 d4             	mov    -0x2c(%ebp),%edx
    9c2e:	83 ca 40             	or     $0x40,%edx
    9c31:	89 55 d4             	mov    %edx,-0x2c(%ebp)
    9c34:	ba 00 01 00 00       	mov    $0x100,%edx
    9c39:	c6 45 c8 80          	movb   $0x80,-0x38(%ebp)
    9c3d:	c6 45 c9 06          	movb   $0x6,-0x37(%ebp)
    9c41:	66 89 55 ca          	mov    %dx,-0x36(%ebp)
    9c45:	66 89 5d cc          	mov    %bx,-0x34(%ebp)
    9c49:	66 89 4d ce          	mov    %cx,-0x32(%ebp)
    9c4d:	81 e1 ff ff 01 00    	and    $0x1ffff,%ecx
    9c53:	c7 45 d8 00 00 00 00 	movl   $0x0,-0x28(%ebp)
    9c5a:	c7 45 dc 00 00 00 00 	movl   $0x0,-0x24(%ebp)
    9c61:	c7 45 e0 00 00 00 00 	movl   $0x0,-0x20(%ebp)
    9c68:	c7 45 e4 00 00 00 00 	movl   $0x0,-0x1c(%ebp)
    9c6f:	8b 55 e4             	mov    -0x1c(%ebp),%edx
    9c72:	80 e6 03             	and    $0x3,%dh
    9c75:	80 ce 0c             	or     $0xc,%dh
    9c78:	89 55 e4             	mov    %edx,-0x1c(%ebp)
    9c7b:	8b 55 e4             	mov    -0x1c(%ebp),%edx
    9c7e:	81 ca 00 00 01 00    	or     $0x10000,%edx
    9c84:	89 55 e4             	mov    %edx,-0x1c(%ebp)
    9c87:	8b 55 e0             	mov    -0x20(%ebp),%edx
    9c8a:	81 e2 00 00 fe ff    	and    $0xfffe0000,%edx
    9c90:	09 ca                	or     %ecx,%edx
    9c92:	8b 4d 0c             	mov    0xc(%ebp),%ecx
    9c95:	89 55 e0             	mov    %edx,-0x20(%ebp)
    9c98:	8b 55 e4             	mov    -0x1c(%ebp),%edx
    9c9b:	89 cb                	mov    %ecx,%ebx
    9c9d:	83 e2 ef             	and    $0xffffffef,%edx
    9ca0:	c1 fb 1f             	sar    $0x1f,%ebx
    9ca3:	89 55 e4             	mov    %edx,-0x1c(%ebp)
    9ca6:	8b 55 e4             	mov    -0x1c(%ebp),%edx
    9ca9:	83 e2 df             	and    $0xffffffdf,%edx
    9cac:	89 55 e4             	mov    %edx,-0x1c(%ebp)
    9caf:	8b 55 e4             	mov    -0x1c(%ebp),%edx
    9cb2:	83 e2 bf             	and    $0xffffffbf,%edx
    9cb5:	89 55 e4             	mov    %edx,-0x1c(%ebp)
    9cb8:	89 4d d8             	mov    %ecx,-0x28(%ebp)
    9cbb:	89 5d dc             	mov    %ebx,-0x24(%ebp)
    9cbe:	c7 45 e8 00 00 00 00 	movl   $0x0,-0x18(%ebp)
    9cc5:	c7 45 ec 00 00 00 00 	movl   $0x0,-0x14(%ebp)
    9ccc:	c7 45 f0 00 00 00 00 	movl   $0x0,-0x10(%ebp)
    9cd3:	c7 45 f4 00 00 00 00 	movl   $0x0,-0xc(%ebp)
    9cda:	8b 55 f4             	mov    -0xc(%ebp),%edx
    9cdd:	80 e6 03             	and    $0x3,%dh
    9ce0:	80 ce 10             	or     $0x10,%dh
    9ce3:	89 55 f4             	mov    %edx,-0xc(%ebp)
    9ce6:	8b 55 f4             	mov    -0xc(%ebp),%edx
    9ce9:	81 e2 ff ff fe ff    	and    $0xfffeffff,%edx
    9cef:	89 55 f4             	mov    %edx,-0xc(%ebp)
    9cf2:	8b 55 f4             	mov    -0xc(%ebp),%edx
    9cf5:	83 e2 ef             	and    $0xffffffef,%edx
    9cf8:	89 55 f4             	mov    %edx,-0xc(%ebp)
    9cfb:	8b 55 f4             	mov    -0xc(%ebp),%edx
    9cfe:	83 ca 20             	or     $0x20,%edx
    9d01:	89 55 f4             	mov    %edx,-0xc(%ebp)
    9d04:	8b 55 c8             	mov    -0x38(%ebp),%edx
    9d07:	89 10                	mov    %edx,(%eax)
    9d09:	8b 55 cc             	mov    -0x34(%ebp),%edx
    9d0c:	89 50 04             	mov    %edx,0x4(%eax)
    9d0f:	8b 55 d0             	mov    -0x30(%ebp),%edx
    9d12:	89 50 08             	mov    %edx,0x8(%eax)
    9d15:	8b 55 d4             	mov    -0x2c(%ebp),%edx
    9d18:	89 50 0c             	mov    %edx,0xc(%eax)
    9d1b:	8b 55 d8             	mov    -0x28(%ebp),%edx
    9d1e:	89 50 10             	mov    %edx,0x10(%eax)
    9d21:	8b 55 dc             	mov    -0x24(%ebp),%edx
    9d24:	8b 5d fc             	mov    -0x4(%ebp),%ebx
    9d27:	89 50 14             	mov    %edx,0x14(%eax)
    9d2a:	8b 55 e0             	mov    -0x20(%ebp),%edx
    9d2d:	89 50 18             	mov    %edx,0x18(%eax)
    9d30:	8b 55 e4             	mov    -0x1c(%ebp),%edx
    9d33:	89 50 1c             	mov    %edx,0x1c(%eax)
    9d36:	8b 55 e8             	mov    -0x18(%ebp),%edx
    9d39:	89 50 20             	mov    %edx,0x20(%eax)
    9d3c:	8b 55 ec             	mov    -0x14(%ebp),%edx
    9d3f:	89 50 24             	mov    %edx,0x24(%eax)
    9d42:	8b 55 f0             	mov    -0x10(%ebp),%edx
    9d45:	89 50 28             	mov    %edx,0x28(%eax)
    9d48:	8b 55 f4             	mov    -0xc(%ebp),%edx
    9d4b:	89 50 2c             	mov    %edx,0x2c(%eax)
    9d4e:	c9                   	leave  
    9d4f:	c2 04 00             	ret    $0x4
    9d52:	66 90                	xchg   %ax,%ax
    9d54:	66 90                	xchg   %ax,%ax
    9d56:	66 90                	xchg   %ax,%ax
    9d58:	66 90                	xchg   %ax,%ax
    9d5a:	66 90                	xchg   %ax,%ax
    9d5c:	66 90                	xchg   %ax,%ax
    9d5e:	66 90                	xchg   %ax,%ax

00009d60 <xhcd_newEventRing>:
    9d60:	55                   	push   %ebp
    9d61:	89 e5                	mov    %esp,%ebp
    9d63:	57                   	push   %edi
    9d64:	56                   	push   %esi
    9d65:	53                   	push   %ebx
    9d66:	83 ec 1c             	sub    $0x1c,%esp
    9d69:	8b 45 10             	mov    0x10(%ebp),%eax
    9d6c:	8b 4d 0c             	mov    0xc(%ebp),%ecx
    9d6f:	8b 75 14             	mov    0x14(%ebp),%esi
    9d72:	85 c0                	test   %eax,%eax
    9d74:	7e 71                	jle    9de7 <xhcd_newEventRing+0x87>
    9d76:	89 f7                	mov    %esi,%edi
    9d78:	31 db                	xor    %ebx,%ebx
    9d7a:	89 ce                	mov    %ecx,%esi
    9d7c:	8d 74 26 00          	lea    0x0(%esi,%eiz,1),%esi
    9d80:	8b 44 de 04          	mov    0x4(%esi,%ebx,8),%eax
    9d84:	83 ec 04             	sub    $0x4,%esp
    9d87:	83 c7 10             	add    $0x10,%edi
    9d8a:	c1 e0 04             	shl    $0x4,%eax
    9d8d:	50                   	push   %eax
    9d8e:	6a 00                	push   $0x0
    9d90:	ff 34 de             	push   (%esi,%ebx,8)
    9d93:	e8 f8 04 00 00       	call   a290 <memset>
    9d98:	8b 04 de             	mov    (%esi,%ebx,8),%eax
    9d9b:	83 c4 0c             	add    $0xc,%esp
    9d9e:	89 c1                	mov    %eax,%ecx
    9da0:	89 47 f0             	mov    %eax,-0x10(%edi)
    9da3:	c1 f9 1f             	sar    $0x1f,%ecx
    9da6:	89 45 e0             	mov    %eax,-0x20(%ebp)
    9da9:	89 4f f4             	mov    %ecx,-0xc(%edi)
    9dac:	8b 44 de 04          	mov    0x4(%esi,%ebx,8),%eax
    9db0:	83 c3 01             	add    $0x1,%ebx
    9db3:	89 4d e4             	mov    %ecx,-0x1c(%ebp)
    9db6:	0f b6 4f f8          	movzbl -0x8(%edi),%ecx
    9dba:	0f b6 d0             	movzbl %al,%edx
    9dbd:	0f b6 c4             	movzbl %ah,%eax
    9dc0:	88 57 f8             	mov    %dl,-0x8(%edi)
    9dc3:	0f b6 57 f9          	movzbl -0x7(%edi),%edx
    9dc7:	88 47 f9             	mov    %al,-0x7(%edi)
    9dca:	ff 75 e4             	push   -0x1c(%ebp)
    9dcd:	ff 75 e0             	push   -0x20(%ebp)
    9dd0:	68 aa b5 00 00       	push   $0xb5aa
    9dd5:	e8 b6 02 00 00       	call   a090 <printf>
    9dda:	83 c4 10             	add    $0x10,%esp
    9ddd:	39 5d 10             	cmp    %ebx,0x10(%ebp)
    9de0:	75 9e                	jne    9d80 <xhcd_newEventRing+0x20>
    9de2:	89 f1                	mov    %esi,%ecx
    9de4:	8b 75 14             	mov    0x14(%ebp),%esi
    9de7:	8b 41 04             	mov    0x4(%ecx),%eax
    9dea:	8b 11                	mov    (%ecx),%edx
    9dec:	8b 4d 08             	mov    0x8(%ebp),%ecx
    9def:	c1 e0 04             	shl    $0x4,%eax
    9df2:	01 d0                	add    %edx,%eax
    9df4:	89 11                	mov    %edx,(%ecx)
    9df6:	89 41 04             	mov    %eax,0x4(%ecx)
    9df9:	8b 45 10             	mov    0x10(%ebp),%eax
    9dfc:	c7 41 08 01 00 00 00 	movl   $0x1,0x8(%ecx)
    9e03:	c1 e0 04             	shl    $0x4,%eax
    9e06:	89 71 0c             	mov    %esi,0xc(%ecx)
    9e09:	8d 3c 06             	lea    (%esi,%eax,1),%edi
    9e0c:	c7 41 14 00 00 00 00 	movl   $0x0,0x14(%ecx)
    9e13:	89 c8                	mov    %ecx,%eax
    9e15:	89 79 10             	mov    %edi,0x10(%ecx)
    9e18:	8b 4d 10             	mov    0x10(%ebp),%ecx
    9e1b:	89 48 18             	mov    %ecx,0x18(%eax)
    9e1e:	8d 65 f4             	lea    -0xc(%ebp),%esp
    9e21:	5b                   	pop    %ebx
    9e22:	5e                   	pop    %esi
    9e23:	5f                   	pop    %edi
    9e24:	5d                   	pop    %ebp
    9e25:	c2 04 00             	ret    $0x4
    9e28:	8d b4 26 00 00 00 00 	lea    0x0(%esi,%eiz,1),%esi
    9e2f:	90                   	nop

00009e30 <xhcd_attachEventRing>:
    9e30:	55                   	push   %ebp
    9e31:	89 e5                	mov    %esp,%ebp
    9e33:	56                   	push   %esi
    9e34:	53                   	push   %ebx
    9e35:	8b 55 08             	mov    0x8(%ebp),%edx
    9e38:	8b 45 0c             	mov    0xc(%ebp),%eax
    9e3b:	8b 4a 18             	mov    0x18(%edx),%ecx
    9e3e:	8b 32                	mov    (%edx),%esi
    9e40:	89 42 14             	mov    %eax,0x14(%edx)
    9e43:	89 f3                	mov    %esi,%ebx
    9e45:	89 48 08             	mov    %ecx,0x8(%eax)
    9e48:	8b 4a 0c             	mov    0xc(%edx),%ecx
    9e4b:	c1 fb 1f             	sar    $0x1f,%ebx
    9e4e:	89 70 18             	mov    %esi,0x18(%eax)
    9e51:	89 58 1c             	mov    %ebx,0x1c(%eax)
    9e54:	89 cb                	mov    %ecx,%ebx
    9e56:	c1 fb 1f             	sar    $0x1f,%ebx
    9e59:	89 48 10             	mov    %ecx,0x10(%eax)
    9e5c:	89 58 14             	mov    %ebx,0x14(%eax)
    9e5f:	b8 01 00 00 00       	mov    $0x1,%eax
    9e64:	5b                   	pop    %ebx
    9e65:	5e                   	pop    %esi
    9e66:	5d                   	pop    %ebp
    9e67:	c3                   	ret    
    9e68:	8d b4 26 00 00 00 00 	lea    0x0(%esi,%eiz,1),%esi
    9e6f:	90                   	nop

00009e70 <xhcd_readEvent>:
    9e70:	55                   	push   %ebp
    9e71:	89 e5                	mov    %esp,%ebp
    9e73:	57                   	push   %edi
    9e74:	56                   	push   %esi
    9e75:	53                   	push   %ebx
    9e76:	83 ec 1c             	sub    $0x1c,%esp
    9e79:	8b 5d 08             	mov    0x8(%ebp),%ebx
    9e7c:	8b 55 10             	mov    0x10(%ebp),%edx
    9e7f:	8b 43 14             	mov    0x14(%ebx),%eax
    9e82:	89 45 e0             	mov    %eax,-0x20(%ebp)
    9e85:	8b 43 0c             	mov    0xc(%ebx),%eax
    9e88:	89 45 ec             	mov    %eax,-0x14(%ebp)
    9e8b:	8b 03                	mov    (%ebx),%eax
    9e8d:	85 d2                	test   %edx,%edx
    9e8f:	0f 8e dd 00 00 00    	jle    9f72 <xhcd_readEvent+0x102>
    9e95:	31 ff                	xor    %edi,%edi
    9e97:	89 c6                	mov    %eax,%esi
    9e99:	8b 55 0c             	mov    0xc(%ebp),%edx
    9e9c:	89 f8                	mov    %edi,%eax
    9e9e:	eb 0b                	jmp    9eab <xhcd_readEvent+0x3b>
    9ea0:	83 c0 01             	add    $0x1,%eax
    9ea3:	83 c2 10             	add    $0x10,%edx
    9ea6:	39 45 10             	cmp    %eax,0x10(%ebp)
    9ea9:	74 65                	je     9f10 <xhcd_readEvent+0xa0>
    9eab:	0f b6 4e 0c          	movzbl 0xc(%esi),%ecx
    9eaf:	83 e1 01             	and    $0x1,%ecx
    9eb2:	3b 4b 08             	cmp    0x8(%ebx),%ecx
    9eb5:	75 59                	jne    9f10 <xhcd_readEvent+0xa0>
    9eb7:	8b 3e                	mov    (%esi),%edi
    9eb9:	83 c6 10             	add    $0x10,%esi
    9ebc:	89 3a                	mov    %edi,(%edx)
    9ebe:	8b 7e f4             	mov    -0xc(%esi),%edi
    9ec1:	89 7a 04             	mov    %edi,0x4(%edx)
    9ec4:	8b 7e f8             	mov    -0x8(%esi),%edi
    9ec7:	89 7a 08             	mov    %edi,0x8(%edx)
    9eca:	8b 7e fc             	mov    -0x4(%esi),%edi
    9ecd:	89 7a 0c             	mov    %edi,0xc(%edx)
    9ed0:	89 33                	mov    %esi,(%ebx)
    9ed2:	3b 73 04             	cmp    0x4(%ebx),%esi
    9ed5:	75 c9                	jne    9ea0 <xhcd_readEvent+0x30>
    9ed7:	83 45 ec 10          	addl   $0x10,-0x14(%ebp)
    9edb:	8b 7d ec             	mov    -0x14(%ebp),%edi
    9ede:	89 7b 0c             	mov    %edi,0xc(%ebx)
    9ee1:	3b 7b 10             	cmp    0x10(%ebx),%edi
    9ee4:	74 72                	je     9f58 <xhcd_readEvent+0xe8>
    9ee6:	8b 7d ec             	mov    -0x14(%ebp),%edi
    9ee9:	83 c0 01             	add    $0x1,%eax
    9eec:	83 c2 10             	add    $0x10,%edx
    9eef:	8b 0f                	mov    (%edi),%ecx
    9ef1:	8b 77 04             	mov    0x4(%edi),%esi
    9ef4:	89 ce                	mov    %ecx,%esi
    9ef6:	89 0b                	mov    %ecx,(%ebx)
    9ef8:	0f b7 4f 08          	movzwl 0x8(%edi),%ecx
    9efc:	c1 e1 04             	shl    $0x4,%ecx
    9eff:	01 f1                	add    %esi,%ecx
    9f01:	89 4b 04             	mov    %ecx,0x4(%ebx)
    9f04:	39 45 10             	cmp    %eax,0x10(%ebp)
    9f07:	75 a2                	jne    9eab <xhcd_readEvent+0x3b>
    9f09:	8d b4 26 00 00 00 00 	lea    0x0(%esi,%eiz,1),%esi
    9f10:	89 c7                	mov    %eax,%edi
    9f12:	89 f0                	mov    %esi,%eax
    9f14:	8b 4d e0             	mov    -0x20(%ebp),%ecx
    9f17:	8b 55 ec             	mov    -0x14(%ebp),%edx
    9f1a:	89 45 e0             	mov    %eax,-0x20(%ebp)
    9f1d:	8b 59 10             	mov    0x10(%ecx),%ebx
    9f20:	8b 71 14             	mov    0x14(%ecx),%esi
    9f23:	89 5d d8             	mov    %ebx,-0x28(%ebp)
    9f26:	8b 5d d8             	mov    -0x28(%ebp),%ebx
    9f29:	89 75 dc             	mov    %esi,-0x24(%ebp)
    9f2c:	89 c6                	mov    %eax,%esi
    9f2e:	29 da                	sub    %ebx,%edx
    9f30:	c1 fe 1f             	sar    $0x1f,%esi
    9f33:	c1 fa 04             	sar    $0x4,%edx
    9f36:	89 75 e4             	mov    %esi,-0x1c(%ebp)
    9f39:	83 e2 07             	and    $0x7,%edx
    9f3c:	09 d0                	or     %edx,%eax
    9f3e:	8b 55 e4             	mov    -0x1c(%ebp),%edx
    9f41:	83 c8 08             	or     $0x8,%eax
    9f44:	89 41 18             	mov    %eax,0x18(%ecx)
    9f47:	89 f8                	mov    %edi,%eax
    9f49:	89 51 1c             	mov    %edx,0x1c(%ecx)
    9f4c:	83 c4 1c             	add    $0x1c,%esp
    9f4f:	5b                   	pop    %ebx
    9f50:	5e                   	pop    %esi
    9f51:	5f                   	pop    %edi
    9f52:	5d                   	pop    %ebp
    9f53:	c3                   	ret    
    9f54:	8d 74 26 00          	lea    0x0(%esi,%eiz,1),%esi
    9f58:	8b 75 e0             	mov    -0x20(%ebp),%esi
    9f5b:	83 f1 01             	xor    $0x1,%ecx
    9f5e:	8b 7e 14             	mov    0x14(%esi),%edi
    9f61:	8b 76 10             	mov    0x10(%esi),%esi
    9f64:	89 4b 08             	mov    %ecx,0x8(%ebx)
    9f67:	89 75 ec             	mov    %esi,-0x14(%ebp)
    9f6a:	89 73 0c             	mov    %esi,0xc(%ebx)
    9f6d:	e9 74 ff ff ff       	jmp    9ee6 <xhcd_readEvent+0x76>
    9f72:	31 ff                	xor    %edi,%edi
    9f74:	eb 9e                	jmp    9f14 <xhcd_readEvent+0xa4>
    9f76:	8d b4 26 00 00 00 00 	lea    0x0(%esi,%eiz,1),%esi
    9f7d:	8d 76 00             	lea    0x0(%esi),%esi

00009f80 <hasPendingEvent>:
    9f80:	55                   	push   %ebp
    9f81:	89 e5                	mov    %esp,%ebp
    9f83:	8b 55 08             	mov    0x8(%ebp),%edx
    9f86:	5d                   	pop    %ebp
    9f87:	8b 02                	mov    (%edx),%eax
    9f89:	0f b6 40 0c          	movzbl 0xc(%eax),%eax
    9f8d:	83 e0 01             	and    $0x1,%eax
    9f90:	39 42 08             	cmp    %eax,0x8(%edx)
    9f93:	0f 94 c0             	sete   %al
    9f96:	0f b6 c0             	movzbl %al,%eax
    9f99:	c3                   	ret    
    9f9a:	66 90                	xchg   %ax,%ax
    9f9c:	66 90                	xchg   %ax,%ax
    9f9e:	66 90                	xchg   %ax,%ax

00009fa0 <newLine>:
    9fa0:	a1 c8 99 03 00       	mov    0x399c8,%eax
    9fa5:	c7 05 cc 99 03 00 00 	movl   $0x0,0x399cc
    9fac:	00 00 00 
    9faf:	83 c0 01             	add    $0x1,%eax
    9fb2:	a3 c8 99 03 00       	mov    %eax,0x399c8
    9fb7:	83 f8 18             	cmp    $0x18,%eax
    9fba:	7f 01                	jg     9fbd <newLine+0x1d>
    9fbc:	c3                   	ret    
    9fbd:	55                   	push   %ebp
    9fbe:	b9 40 81 0b 00       	mov    $0xb8140,%ecx
    9fc3:	c7 05 c8 99 03 00 18 	movl   $0x18,0x399c8
    9fca:	00 00 00 
    9fcd:	89 e5                	mov    %esp,%ebp
    9fcf:	57                   	push   %edi
    9fd0:	31 ff                	xor    %edi,%edi
    9fd2:	56                   	push   %esi
    9fd3:	be 50 00 00 00       	mov    $0x50,%esi
    9fd8:	53                   	push   %ebx
    9fd9:	8d b4 26 00 00 00 00 	lea    0x0(%esi,%eiz,1),%esi
    9fe0:	89 fb                	mov    %edi,%ebx
    9fe2:	8d 81 60 ff ff ff    	lea    -0xa0(%ecx),%eax
    9fe8:	29 f3                	sub    %esi,%ebx
    9fea:	01 db                	add    %ebx,%ebx
    9fec:	8d 74 26 00          	lea    0x0(%esi,%eiz,1),%esi
    9ff0:	66 0f be 10          	movsbw (%eax),%dx
    9ff4:	80 ce 0f             	or     $0xf,%dh
    9ff7:	66 89 14 03          	mov    %dx,(%ebx,%eax,1)
    9ffb:	83 c0 02             	add    $0x2,%eax
    9ffe:	39 c1                	cmp    %eax,%ecx
    a000:	75 ee                	jne    9ff0 <newLine+0x50>
    a002:	83 c6 50             	add    $0x50,%esi
    a005:	83 c7 50             	add    $0x50,%edi
    a008:	81 c1 a0 00 00 00    	add    $0xa0,%ecx
    a00e:	81 fe d0 07 00 00    	cmp    $0x7d0,%esi
    a014:	75 ca                	jne    9fe0 <newLine+0x40>
    a016:	b8 00 8f 0b 00       	mov    $0xb8f00,%eax
    a01b:	8d 74 26 00          	lea    0x0(%esi,%eiz,1),%esi
    a01f:	90                   	nop
    a020:	ba 20 0f 00 00       	mov    $0xf20,%edx
    a025:	83 c0 02             	add    $0x2,%eax
    a028:	66 89 50 fe          	mov    %dx,-0x2(%eax)
    a02c:	3d a0 8f 0b 00       	cmp    $0xb8fa0,%eax
    a031:	75 ed                	jne    a020 <newLine+0x80>
    a033:	5b                   	pop    %ebx
    a034:	5e                   	pop    %esi
    a035:	5f                   	pop    %edi
    a036:	5d                   	pop    %ebp
    a037:	c3                   	ret    
    a038:	8d b4 26 00 00 00 00 	lea    0x0(%esi,%eiz,1),%esi
    a03f:	90                   	nop

0000a040 <stdioinit>:
    a040:	c7 05 cc 99 03 00 00 	movl   $0x0,0x399cc
    a047:	00 00 00 
    a04a:	ba a0 80 0b 00       	mov    $0xb80a0,%edx
    a04f:	c7 05 c8 99 03 00 00 	movl   $0x0,0x399c8
    a056:	00 00 00 
    a059:	8d b4 26 00 00 00 00 	lea    0x0(%esi,%eiz,1),%esi
    a060:	8d 82 60 ff ff ff    	lea    -0xa0(%edx),%eax
    a066:	8d b4 26 00 00 00 00 	lea    0x0(%esi,%eiz,1),%esi
    a06d:	8d 76 00             	lea    0x0(%esi),%esi
    a070:	31 c9                	xor    %ecx,%ecx
    a072:	83 c0 02             	add    $0x2,%eax
    a075:	66 89 48 fe          	mov    %cx,-0x2(%eax)
    a079:	39 d0                	cmp    %edx,%eax
    a07b:	75 f3                	jne    a070 <stdioinit+0x30>
    a07d:	8d 90 a0 00 00 00    	lea    0xa0(%eax),%edx
    a083:	3d a0 8f 0b 00       	cmp    $0xb8fa0,%eax
    a088:	75 d6                	jne    a060 <stdioinit+0x20>
    a08a:	c3                   	ret    
    a08b:	8d 74 26 00          	lea    0x0(%esi,%eiz,1),%esi
    a08f:	90                   	nop

0000a090 <printf>:
    a090:	55                   	push   %ebp
    a091:	89 e5                	mov    %esp,%ebp
    a093:	57                   	push   %edi
    a094:	56                   	push   %esi
    a095:	53                   	push   %ebx
    a096:	83 ec 3c             	sub    $0x3c,%esp
    a099:	8b 5d 08             	mov    0x8(%ebp),%ebx
    a09c:	66 0f be 03          	movsbw (%ebx),%ax
    a0a0:	84 c0                	test   %al,%al
    a0a2:	74 31                	je     a0d5 <printf+0x45>
    a0a4:	8d 7d 0c             	lea    0xc(%ebp),%edi
    a0a7:	8d 73 01             	lea    0x1(%ebx),%esi
    a0aa:	3c 25                	cmp    $0x25,%al
    a0ac:	75 32                	jne    a0e0 <printf+0x50>
    a0ae:	66 0f be 43 01       	movsbw 0x1(%ebx),%ax
    a0b3:	3c 64                	cmp    $0x64,%al
    a0b5:	0f 84 25 01 00 00    	je     a1e0 <printf+0x150>
    a0bb:	3c 73                	cmp    $0x73,%al
    a0bd:	0f 84 f5 00 00 00    	je     a1b8 <printf+0x128>
    a0c3:	89 f3                	mov    %esi,%ebx
    a0c5:	3c 62                	cmp    $0x62,%al
    a0c7:	74 67                	je     a130 <printf+0xa0>
    a0c9:	3c 58                	cmp    $0x58,%al
    a0cb:	0f 84 8f 00 00 00    	je     a160 <printf+0xd0>
    a0d1:	84 c0                	test   %al,%al
    a0d3:	75 d2                	jne    a0a7 <printf+0x17>
    a0d5:	8d 65 f4             	lea    -0xc(%ebp),%esp
    a0d8:	5b                   	pop    %ebx
    a0d9:	5e                   	pop    %esi
    a0da:	5f                   	pop    %edi
    a0db:	5d                   	pop    %ebp
    a0dc:	c3                   	ret    
    a0dd:	8d 76 00             	lea    0x0(%esi),%esi
    a0e0:	3c 0a                	cmp    $0xa,%al
    a0e2:	74 3c                	je     a120 <printf+0x90>
    a0e4:	8b 0d c8 99 03 00    	mov    0x399c8,%ecx
    a0ea:	8b 15 cc 99 03 00    	mov    0x399cc,%edx
    a0f0:	80 cc 0f             	or     $0xf,%ah
    a0f3:	8d 0c 89             	lea    (%ecx,%ecx,4),%ecx
    a0f6:	c1 e1 04             	shl    $0x4,%ecx
    a0f9:	01 d1                	add    %edx,%ecx
    a0fb:	66 89 84 09 00 80 0b 	mov    %ax,0xb8000(%ecx,%ecx,1)
    a102:	00 
    a103:	8d 42 01             	lea    0x1(%edx),%eax
    a106:	a3 cc 99 03 00       	mov    %eax,0x399cc
    a10b:	83 f8 4f             	cmp    $0x4f,%eax
    a10e:	7f 10                	jg     a120 <printf+0x90>
    a110:	66 0f be 43 01       	movsbw 0x1(%ebx),%ax
    a115:	89 f3                	mov    %esi,%ebx
    a117:	eb b8                	jmp    a0d1 <printf+0x41>
    a119:	8d b4 26 00 00 00 00 	lea    0x0(%esi,%eiz,1),%esi
    a120:	e8 7b fe ff ff       	call   9fa0 <newLine>
    a125:	eb e9                	jmp    a110 <printf+0x80>
    a127:	8d b4 26 00 00 00 00 	lea    0x0(%esi,%eiz,1),%esi
    a12e:	66 90                	xchg   %ax,%ax
    a130:	89 f8                	mov    %edi,%eax
    a132:	83 c3 01             	add    $0x1,%ebx
    a135:	83 c7 04             	add    $0x4,%edi
    a138:	8b 00                	mov    (%eax),%eax
    a13a:	85 c0                	test   %eax,%eax
    a13c:	74 5a                	je     a198 <printf+0x108>
    a13e:	83 ec 0c             	sub    $0xc,%esp
    a141:	68 b9 b5 00 00       	push   $0xb5b9
    a146:	e8 45 ff ff ff       	call   a090 <printf>
    a14b:	66 0f be 46 01       	movsbw 0x1(%esi),%ax
    a150:	83 c4 10             	add    $0x10,%esp
    a153:	3c 58                	cmp    $0x58,%al
    a155:	0f 85 76 ff ff ff    	jne    a0d1 <printf+0x41>
    a15b:	8d 74 26 00          	lea    0x0(%esi,%eiz,1),%esi
    a15f:	90                   	nop
    a160:	83 ec 08             	sub    $0x8,%esp
    a163:	8d 43 01             	lea    0x1(%ebx),%eax
    a166:	8d 75 c8             	lea    -0x38(%ebp),%esi
    a169:	89 fa                	mov    %edi,%edx
    a16b:	89 45 c4             	mov    %eax,-0x3c(%ebp)
    a16e:	83 c7 04             	add    $0x4,%edi
    a171:	56                   	push   %esi
    a172:	ff 32                	push   (%edx)
    a174:	e8 77 05 00 00       	call   a6f0 <strReadIntHex>
    a179:	89 34 24             	mov    %esi,(%esp)
    a17c:	e8 0f ff ff ff       	call   a090 <printf>
    a181:	66 0f be 43 01       	movsbw 0x1(%ebx),%ax
    a186:	83 c4 10             	add    $0x10,%esp
    a189:	8b 5d c4             	mov    -0x3c(%ebp),%ebx
    a18c:	e9 40 ff ff ff       	jmp    a0d1 <printf+0x41>
    a191:	8d b4 26 00 00 00 00 	lea    0x0(%esi,%eiz,1),%esi
    a198:	83 ec 0c             	sub    $0xc,%esp
    a19b:	68 be b5 00 00       	push   $0xb5be
    a1a0:	e8 eb fe ff ff       	call   a090 <printf>
    a1a5:	66 0f be 46 01       	movsbw 0x1(%esi),%ax
    a1aa:	83 c4 10             	add    $0x10,%esp
    a1ad:	e9 17 ff ff ff       	jmp    a0c9 <printf+0x39>
    a1b2:	8d b6 00 00 00 00    	lea    0x0(%esi),%esi
    a1b8:	89 f8                	mov    %edi,%eax
    a1ba:	83 ec 0c             	sub    $0xc,%esp
    a1bd:	8d 5e 01             	lea    0x1(%esi),%ebx
    a1c0:	83 c7 04             	add    $0x4,%edi
    a1c3:	ff 30                	push   (%eax)
    a1c5:	e8 c6 fe ff ff       	call   a090 <printf>
    a1ca:	66 0f be 46 01       	movsbw 0x1(%esi),%ax
    a1cf:	83 c4 10             	add    $0x10,%esp
    a1d2:	89 de                	mov    %ebx,%esi
    a1d4:	e9 ea fe ff ff       	jmp    a0c3 <printf+0x33>
    a1d9:	8d b4 26 00 00 00 00 	lea    0x0(%esi,%eiz,1),%esi
    a1e0:	83 ec 08             	sub    $0x8,%esp
    a1e3:	8d 45 c8             	lea    -0x38(%ebp),%eax
    a1e6:	8d 73 02             	lea    0x2(%ebx),%esi
    a1e9:	89 fa                	mov    %edi,%edx
    a1eb:	50                   	push   %eax
    a1ec:	83 c7 04             	add    $0x4,%edi
    a1ef:	ff 32                	push   (%edx)
    a1f1:	e8 ca 04 00 00       	call   a6c0 <strReadInt>
    a1f6:	8d 45 c8             	lea    -0x38(%ebp),%eax
    a1f9:	89 04 24             	mov    %eax,(%esp)
    a1fc:	e8 8f fe ff ff       	call   a090 <printf>
    a201:	66 0f be 43 02       	movsbw 0x2(%ebx),%ax
    a206:	83 c4 10             	add    $0x10,%esp
    a209:	e9 ad fe ff ff       	jmp    a0bb <printf+0x2b>
    a20e:	66 90                	xchg   %ax,%ax

0000a210 <printc>:
    a210:	55                   	push   %ebp
    a211:	89 e5                	mov    %esp,%ebp
    a213:	8b 45 10             	mov    0x10(%ebp),%eax
    a216:	66 0f be 55 08       	movsbw 0x8(%ebp),%dx
    a21b:	8d 04 80             	lea    (%eax,%eax,4),%eax
    a21e:	80 ce 0f             	or     $0xf,%dh
    a221:	c1 e0 04             	shl    $0x4,%eax
    a224:	03 45 0c             	add    0xc(%ebp),%eax
    a227:	66 89 94 00 00 80 0b 	mov    %dx,0xb8000(%eax,%eax,1)
    a22e:	00 
    a22f:	5d                   	pop    %ebp
    a230:	c3                   	ret    
    a231:	8d b4 26 00 00 00 00 	lea    0x0(%esi,%eiz,1),%esi
    a238:	8d b4 26 00 00 00 00 	lea    0x0(%esi,%eiz,1),%esi
    a23f:	90                   	nop

0000a240 <getc>:
    a240:	55                   	push   %ebp
    a241:	89 e5                	mov    %esp,%ebp
    a243:	8b 45 0c             	mov    0xc(%ebp),%eax
    a246:	8d 04 80             	lea    (%eax,%eax,4),%eax
    a249:	c1 e0 04             	shl    $0x4,%eax
    a24c:	03 45 08             	add    0x8(%ebp),%eax
    a24f:	5d                   	pop    %ebp
    a250:	0f b6 84 00 00 80 0b 	movzbl 0xb8000(%eax,%eax,1),%eax
    a257:	00 
    a258:	c3                   	ret    
    a259:	8d b4 26 00 00 00 00 	lea    0x0(%esi,%eiz,1),%esi

0000a260 <clear>:
    a260:	ba a0 80 0b 00       	mov    $0xb80a0,%edx
    a265:	8d 76 00             	lea    0x0(%esi),%esi
    a268:	8d 82 60 ff ff ff    	lea    -0xa0(%edx),%eax
    a26e:	66 90                	xchg   %ax,%ax
    a270:	31 c9                	xor    %ecx,%ecx
    a272:	83 c0 02             	add    $0x2,%eax
    a275:	66 89 48 fe          	mov    %cx,-0x2(%eax)
    a279:	39 d0                	cmp    %edx,%eax
    a27b:	75 f3                	jne    a270 <clear+0x10>
    a27d:	8d 90 a0 00 00 00    	lea    0xa0(%eax),%edx
    a283:	3d a0 8f 0b 00       	cmp    $0xb8fa0,%eax
    a288:	75 de                	jne    a268 <clear+0x8>
    a28a:	c3                   	ret    
    a28b:	66 90                	xchg   %ax,%ax
    a28d:	66 90                	xchg   %ax,%ax
    a28f:	90                   	nop

0000a290 <memset>:
    a290:	55                   	push   %ebp
    a291:	89 e5                	mov    %esp,%ebp
    a293:	56                   	push   %esi
    a294:	53                   	push   %ebx
    a295:	8b 5d 08             	mov    0x8(%ebp),%ebx
    a298:	8b 75 10             	mov    0x10(%ebp),%esi
    a29b:	0f b6 4d 0c          	movzbl 0xc(%ebp),%ecx
    a29f:	8d 14 33             	lea    (%ebx,%esi,1),%edx
    a2a2:	85 f6                	test   %esi,%esi
    a2a4:	7e 14                	jle    a2ba <memset+0x2a>
    a2a6:	89 d8                	mov    %ebx,%eax
    a2a8:	8d b4 26 00 00 00 00 	lea    0x0(%esi,%eiz,1),%esi
    a2af:	90                   	nop
    a2b0:	83 c0 01             	add    $0x1,%eax
    a2b3:	88 48 ff             	mov    %cl,-0x1(%eax)
    a2b6:	39 c2                	cmp    %eax,%edx
    a2b8:	75 f6                	jne    a2b0 <memset+0x20>
    a2ba:	89 d8                	mov    %ebx,%eax
    a2bc:	5b                   	pop    %ebx
    a2bd:	5e                   	pop    %esi
    a2be:	5d                   	pop    %ebp
    a2bf:	c3                   	ret    

0000a2c0 <memcpy>:
    a2c0:	55                   	push   %ebp
    a2c1:	89 e5                	mov    %esp,%ebp
    a2c3:	57                   	push   %edi
    a2c4:	56                   	push   %esi
    a2c5:	8b 45 10             	mov    0x10(%ebp),%eax
    a2c8:	8b 55 08             	mov    0x8(%ebp),%edx
    a2cb:	8b 75 0c             	mov    0xc(%ebp),%esi
    a2ce:	85 c0                	test   %eax,%eax
    a2d0:	7e 13                	jle    a2e5 <memcpy+0x25>
    a2d2:	01 d0                	add    %edx,%eax
    a2d4:	89 d7                	mov    %edx,%edi
    a2d6:	8d b4 26 00 00 00 00 	lea    0x0(%esi,%eiz,1),%esi
    a2dd:	8d 76 00             	lea    0x0(%esi),%esi
    a2e0:	a4                   	movsb  %ds:(%esi),%es:(%edi)
    a2e1:	39 f8                	cmp    %edi,%eax
    a2e3:	75 fb                	jne    a2e0 <memcpy+0x20>
    a2e5:	5e                   	pop    %esi
    a2e6:	89 d0                	mov    %edx,%eax
    a2e8:	5f                   	pop    %edi
    a2e9:	5d                   	pop    %ebp
    a2ea:	c3                   	ret    
    a2eb:	66 90                	xchg   %ax,%ax
    a2ed:	66 90                	xchg   %ax,%ax
    a2ef:	90                   	nop

0000a2f0 <stdlib_init>:
    a2f0:	c7 05 d0 99 03 00 00 	movl   $0x70000,0x399d0
    a2f7:	00 07 00 
    a2fa:	c6 05 00 00 07 00 00 	movb   $0x0,0x70000
    a301:	c7 05 04 00 07 00 00 	movl   $0x0,0x70004
    a308:	00 00 00 
    a30b:	c3                   	ret    
    a30c:	8d 74 26 00          	lea    0x0(%esi,%eiz,1),%esi

0000a310 <malloc>:
    a310:	55                   	push   %ebp
    a311:	a1 d0 99 03 00       	mov    0x399d0,%eax
    a316:	89 e5                	mov    %esp,%ebp
    a318:	56                   	push   %esi
    a319:	53                   	push   %ebx
    a31a:	8b 5d 08             	mov    0x8(%ebp),%ebx
    a31d:	85 c0                	test   %eax,%eax
    a31f:	74 25                	je     a346 <malloc+0x36>
    a321:	0f b6 08             	movzbl (%eax),%ecx
    a324:	89 c2                	mov    %eax,%edx
    a326:	8b 40 04             	mov    0x4(%eax),%eax
    a329:	84 c9                	test   %cl,%cl
    a32b:	75 f0                	jne    a31d <malloc+0xd>
    a32d:	8d 4b 08             	lea    0x8(%ebx),%ecx
    a330:	85 c0                	test   %eax,%eax
    a332:	74 1c                	je     a350 <malloc+0x40>
    a334:	89 c6                	mov    %eax,%esi
    a336:	83 c3 10             	add    $0x10,%ebx
    a339:	29 d6                	sub    %edx,%esi
    a33b:	39 de                	cmp    %ebx,%esi
    a33d:	73 11                	jae    a350 <malloc+0x40>
    a33f:	39 ce                	cmp    %ecx,%esi
    a341:	73 18                	jae    a35b <malloc+0x4b>
    a343:	8d 42 08             	lea    0x8(%edx),%eax
    a346:	5b                   	pop    %ebx
    a347:	5e                   	pop    %esi
    a348:	5d                   	pop    %ebp
    a349:	c3                   	ret    
    a34a:	8d b6 00 00 00 00    	lea    0x0(%esi),%esi
    a350:	01 d1                	add    %edx,%ecx
    a352:	89 41 04             	mov    %eax,0x4(%ecx)
    a355:	c6 01 00             	movb   $0x0,(%ecx)
    a358:	89 4a 04             	mov    %ecx,0x4(%edx)
    a35b:	c6 02 01             	movb   $0x1,(%edx)
    a35e:	eb e3                	jmp    a343 <malloc+0x33>

0000a360 <malloc_constrained>:
    a360:	55                   	push   %ebp
    a361:	89 e5                	mov    %esp,%ebp
    a363:	57                   	push   %edi
    a364:	56                   	push   %esi
    a365:	53                   	push   %ebx
    a366:	83 ec 3c             	sub    $0x3c,%esp
    a369:	8b 55 10             	mov    0x10(%ebp),%edx
    a36c:	8b 75 0c             	mov    0xc(%ebp),%esi
    a36f:	85 d2                	test   %edx,%edx
    a371:	74 19                	je     a38c <malloc_constrained+0x2c>
    a373:	8b 45 10             	mov    0x10(%ebp),%eax
    a376:	99                   	cltd   
    a377:	f7 fe                	idiv   %esi
    a379:	89 f0                	mov    %esi,%eax
    a37b:	29 d0                	sub    %edx,%eax
    a37d:	99                   	cltd   
    a37e:	f7 fe                	idiv   %esi
    a380:	03 55 08             	add    0x8(%ebp),%edx
    a383:	39 55 10             	cmp    %edx,0x10(%ebp)
    a386:	0f 8c c4 01 00 00    	jl     a550 <malloc_constrained+0x1f0>
    a38c:	8b 3d d0 99 03 00    	mov    0x399d0,%edi
    a392:	85 ff                	test   %edi,%edi
    a394:	0f 84 43 01 00 00    	je     a4dd <malloc_constrained+0x17d>
    a39a:	8b 45 08             	mov    0x8(%ebp),%eax
    a39d:	31 d2                	xor    %edx,%edx
    a39f:	c7 45 bc 00 00 00 00 	movl   $0x0,-0x44(%ebp)
    a3a6:	89 75 0c             	mov    %esi,0xc(%ebp)
    a3a9:	83 c0 ff             	add    $0xffffffff,%eax
    a3ac:	83 d2 ff             	adc    $0xffffffff,%edx
    a3af:	89 45 c0             	mov    %eax,-0x40(%ebp)
    a3b2:	89 55 c4             	mov    %edx,-0x3c(%ebp)
    a3b5:	8d 76 00             	lea    0x0(%esi),%esi
    a3b8:	80 3f 00             	cmpb   $0x0,(%edi)
    a3bb:	0f 85 32 01 00 00    	jne    a4f3 <malloc_constrained+0x193>
    a3c1:	89 f8                	mov    %edi,%eax
    a3c3:	99                   	cltd   
    a3c4:	83 c0 08             	add    $0x8,%eax
    a3c7:	83 d2 00             	adc    $0x0,%edx
    a3ca:	89 45 d8             	mov    %eax,-0x28(%ebp)
    a3cd:	89 d1                	mov    %edx,%ecx
    a3cf:	89 c2                	mov    %eax,%edx
    a3d1:	8b 45 10             	mov    0x10(%ebp),%eax
    a3d4:	89 4d dc             	mov    %ecx,-0x24(%ebp)
    a3d7:	85 c0                	test   %eax,%eax
    a3d9:	0f 84 31 01 00 00    	je     a510 <malloc_constrained+0x1b0>
    a3df:	8b 5d 10             	mov    0x10(%ebp),%ebx
    a3e2:	83 ec 0c             	sub    $0xc,%esp
    a3e5:	8d 45 e0             	lea    -0x20(%ebp),%eax
    a3e8:	50                   	push   %eax
    a3e9:	89 de                	mov    %ebx,%esi
    a3eb:	c1 fe 1f             	sar    $0x1f,%esi
    a3ee:	56                   	push   %esi
    a3ef:	53                   	push   %ebx
    a3f0:	51                   	push   %ecx
    a3f1:	52                   	push   %edx
    a3f2:	e8 09 08 00 00       	call   ac00 <__udivmoddi4>
    a3f7:	83 c4 20             	add    $0x20,%esp
    a3fa:	89 45 d0             	mov    %eax,-0x30(%ebp)
    a3fd:	8b 45 e0             	mov    -0x20(%ebp),%eax
    a400:	89 55 cc             	mov    %edx,-0x34(%ebp)
    a403:	8b 55 c4             	mov    -0x3c(%ebp),%edx
    a406:	89 45 c8             	mov    %eax,-0x38(%ebp)
    a409:	8b 45 c0             	mov    -0x40(%ebp),%eax
    a40c:	03 45 d8             	add    -0x28(%ebp),%eax
    a40f:	13 55 dc             	adc    -0x24(%ebp),%edx
    a412:	56                   	push   %esi
    a413:	53                   	push   %ebx
    a414:	52                   	push   %edx
    a415:	50                   	push   %eax
    a416:	e8 85 05 00 00       	call   a9a0 <__udivdi3>
    a41b:	8b 4d d0             	mov    -0x30(%ebp),%ecx
    a41e:	8b 5d cc             	mov    -0x34(%ebp),%ebx
    a421:	83 c4 10             	add    $0x10,%esp
    a424:	31 c1                	xor    %eax,%ecx
    a426:	31 d3                	xor    %edx,%ebx
    a428:	09 cb                	or     %ecx,%ebx
    a42a:	0f 84 e0 00 00 00    	je     a510 <malloc_constrained+0x1b0>
    a430:	8b 45 10             	mov    0x10(%ebp),%eax
    a433:	8b 75 c8             	mov    -0x38(%ebp),%esi
    a436:	29 f0                	sub    %esi,%eax
    a438:	99                   	cltd   
    a439:	f7 7d 10             	idivl  0x10(%ebp)
    a43c:	8d 1c 17             	lea    (%edi,%edx,1),%ebx
    a43f:	89 d8                	mov    %ebx,%eax
    a441:	99                   	cltd   
    a442:	83 c0 08             	add    $0x8,%eax
    a445:	83 d2 00             	adc    $0x0,%edx
    a448:	8b 4d 0c             	mov    0xc(%ebp),%ecx
    a44b:	89 4d d0             	mov    %ecx,-0x30(%ebp)
    a44e:	c1 f9 1f             	sar    $0x1f,%ecx
    a451:	89 4d d4             	mov    %ecx,-0x2c(%ebp)
    a454:	ff 75 d4             	push   -0x2c(%ebp)
    a457:	ff 75 d0             	push   -0x30(%ebp)
    a45a:	52                   	push   %edx
    a45b:	50                   	push   %eax
    a45c:	e8 5f 06 00 00       	call   aac0 <__umoddi3>
    a461:	83 c4 10             	add    $0x10,%esp
    a464:	89 c2                	mov    %eax,%edx
    a466:	8b 45 0c             	mov    0xc(%ebp),%eax
    a469:	29 d0                	sub    %edx,%eax
    a46b:	99                   	cltd   
    a46c:	f7 7d 0c             	idivl  0xc(%ebp)
    a46f:	8b 45 08             	mov    0x8(%ebp),%eax
    a472:	01 d3                	add    %edx,%ebx
    a474:	8d 50 08             	lea    0x8(%eax),%edx
    a477:	8b 43 04             	mov    0x4(%ebx),%eax
    a47a:	29 d8                	sub    %ebx,%eax
    a47c:	39 d0                	cmp    %edx,%eax
    a47e:	72 70                	jb     a4f0 <malloc_constrained+0x190>
    a480:	8b 47 04             	mov    0x4(%edi),%eax
    a483:	8b 75 0c             	mov    0xc(%ebp),%esi
    a486:	89 55 cc             	mov    %edx,-0x34(%ebp)
    a489:	89 43 04             	mov    %eax,0x4(%ebx)
    a48c:	ff 75 d4             	push   -0x2c(%ebp)
    a48f:	ff 75 d0             	push   -0x30(%ebp)
    a492:	ff 75 dc             	push   -0x24(%ebp)
    a495:	ff 75 d8             	push   -0x28(%ebp)
    a498:	e8 23 06 00 00       	call   aac0 <__umoddi3>
    a49d:	83 c4 10             	add    $0x10,%esp
    a4a0:	89 c2                	mov    %eax,%edx
    a4a2:	89 f0                	mov    %esi,%eax
    a4a4:	29 d0                	sub    %edx,%eax
    a4a6:	99                   	cltd   
    a4a7:	f7 fe                	idiv   %esi
    a4a9:	83 fa 08             	cmp    $0x8,%edx
    a4ac:	0f 86 8e 00 00 00    	jbe    a540 <malloc_constrained+0x1e0>
    a4b2:	89 5f 04             	mov    %ebx,0x4(%edi)
    a4b5:	80 3b 00             	cmpb   $0x0,(%ebx)
    a4b8:	75 20                	jne    a4da <malloc_constrained+0x17a>
    a4ba:	8b 53 04             	mov    0x4(%ebx),%edx
    a4bd:	85 d2                	test   %edx,%edx
    a4bf:	74 5f                	je     a520 <malloc_constrained+0x1c0>
    a4c1:	8b 45 08             	mov    0x8(%ebp),%eax
    a4c4:	89 d1                	mov    %edx,%ecx
    a4c6:	29 d9                	sub    %ebx,%ecx
    a4c8:	83 c0 10             	add    $0x10,%eax
    a4cb:	39 c1                	cmp    %eax,%ecx
    a4cd:	73 51                	jae    a520 <malloc_constrained+0x1c0>
    a4cf:	8b 45 cc             	mov    -0x34(%ebp),%eax
    a4d2:	39 c1                	cmp    %eax,%ecx
    a4d4:	0f 83 8d 00 00 00    	jae    a567 <malloc_constrained+0x207>
    a4da:	8d 7b 08             	lea    0x8(%ebx),%edi
    a4dd:	8d 65 f4             	lea    -0xc(%ebp),%esp
    a4e0:	89 f8                	mov    %edi,%eax
    a4e2:	5b                   	pop    %ebx
    a4e3:	5e                   	pop    %esi
    a4e4:	5f                   	pop    %edi
    a4e5:	5d                   	pop    %ebp
    a4e6:	c3                   	ret    
    a4e7:	8d b4 26 00 00 00 00 	lea    0x0(%esi,%eiz,1),%esi
    a4ee:	66 90                	xchg   %ax,%ax
    a4f0:	89 7d bc             	mov    %edi,-0x44(%ebp)
    a4f3:	8b 7f 04             	mov    0x4(%edi),%edi
    a4f6:	85 ff                	test   %edi,%edi
    a4f8:	0f 85 ba fe ff ff    	jne    a3b8 <malloc_constrained+0x58>
    a4fe:	8d 65 f4             	lea    -0xc(%ebp),%esp
    a501:	89 f8                	mov    %edi,%eax
    a503:	5b                   	pop    %ebx
    a504:	5e                   	pop    %esi
    a505:	5f                   	pop    %edi
    a506:	5d                   	pop    %ebp
    a507:	c3                   	ret    
    a508:	8d b4 26 00 00 00 00 	lea    0x0(%esi,%eiz,1),%esi
    a50f:	90                   	nop
    a510:	8b 45 d8             	mov    -0x28(%ebp),%eax
    a513:	8b 55 dc             	mov    -0x24(%ebp),%edx
    a516:	89 fb                	mov    %edi,%ebx
    a518:	e9 2b ff ff ff       	jmp    a448 <malloc_constrained+0xe8>
    a51d:	8d 76 00             	lea    0x0(%esi),%esi
    a520:	8b 75 cc             	mov    -0x34(%ebp),%esi
    a523:	8d 7b 08             	lea    0x8(%ebx),%edi
    a526:	01 de                	add    %ebx,%esi
    a528:	89 56 04             	mov    %edx,0x4(%esi)
    a52b:	c6 06 00             	movb   $0x0,(%esi)
    a52e:	89 73 04             	mov    %esi,0x4(%ebx)
    a531:	c6 03 01             	movb   $0x1,(%ebx)
    a534:	eb a7                	jmp    a4dd <malloc_constrained+0x17d>
    a536:	8d b4 26 00 00 00 00 	lea    0x0(%esi,%eiz,1),%esi
    a53d:	8d 76 00             	lea    0x0(%esi),%esi
    a540:	8b 45 bc             	mov    -0x44(%ebp),%eax
    a543:	85 c0                	test   %eax,%eax
    a545:	74 15                	je     a55c <malloc_constrained+0x1fc>
    a547:	89 58 04             	mov    %ebx,0x4(%eax)
    a54a:	e9 66 ff ff ff       	jmp    a4b5 <malloc_constrained+0x155>
    a54f:	90                   	nop
    a550:	8d 65 f4             	lea    -0xc(%ebp),%esp
    a553:	31 ff                	xor    %edi,%edi
    a555:	5b                   	pop    %ebx
    a556:	89 f8                	mov    %edi,%eax
    a558:	5e                   	pop    %esi
    a559:	5f                   	pop    %edi
    a55a:	5d                   	pop    %ebp
    a55b:	c3                   	ret    
    a55c:	89 1d d0 99 03 00    	mov    %ebx,0x399d0
    a562:	e9 4e ff ff ff       	jmp    a4b5 <malloc_constrained+0x155>
    a567:	c6 03 01             	movb   $0x1,(%ebx)
    a56a:	e9 6b ff ff ff       	jmp    a4da <malloc_constrained+0x17a>
    a56f:	90                   	nop

0000a570 <free>:
    a570:	55                   	push   %ebp
    a571:	89 e5                	mov    %esp,%ebp
    a573:	53                   	push   %ebx
    a574:	a1 d0 99 03 00       	mov    0x399d0,%eax
    a579:	8b 5d 08             	mov    0x8(%ebp),%ebx
    a57c:	85 c0                	test   %eax,%eax
    a57e:	74 20                	je     a5a0 <free+0x30>
    a580:	8d 48 08             	lea    0x8(%eax),%ecx
    a583:	8b 50 04             	mov    0x4(%eax),%edx
    a586:	39 cb                	cmp    %ecx,%ebx
    a588:	75 0d                	jne    a597 <free+0x27>
    a58a:	eb 44                	jmp    a5d0 <free+0x60>
    a58c:	8d 74 26 00          	lea    0x0(%esi,%eiz,1),%esi
    a590:	8d 50 08             	lea    0x8(%eax),%edx
    a593:	39 d3                	cmp    %edx,%ebx
    a595:	74 11                	je     a5a8 <free+0x38>
    a597:	89 c1                	mov    %eax,%ecx
    a599:	8b 40 04             	mov    0x4(%eax),%eax
    a59c:	85 c0                	test   %eax,%eax
    a59e:	75 f0                	jne    a590 <free+0x20>
    a5a0:	8b 5d fc             	mov    -0x4(%ebp),%ebx
    a5a3:	c9                   	leave  
    a5a4:	c3                   	ret    
    a5a5:	8d 76 00             	lea    0x0(%esi),%esi
    a5a8:	80 39 00             	cmpb   $0x0,(%ecx)
    a5ab:	8b 50 04             	mov    0x4(%eax),%edx
    a5ae:	75 20                	jne    a5d0 <free+0x60>
    a5b0:	85 d2                	test   %edx,%edx
    a5b2:	74 08                	je     a5bc <free+0x4c>
    a5b4:	80 3a 00             	cmpb   $0x0,(%edx)
    a5b7:	75 03                	jne    a5bc <free+0x4c>
    a5b9:	8b 52 04             	mov    0x4(%edx),%edx
    a5bc:	c6 01 00             	movb   $0x0,(%ecx)
    a5bf:	8b 5d fc             	mov    -0x4(%ebp),%ebx
    a5c2:	89 51 04             	mov    %edx,0x4(%ecx)
    a5c5:	c9                   	leave  
    a5c6:	c3                   	ret    
    a5c7:	8d b4 26 00 00 00 00 	lea    0x0(%esi,%eiz,1),%esi
    a5ce:	66 90                	xchg   %ax,%ax
    a5d0:	89 c1                	mov    %eax,%ecx
    a5d2:	eb dc                	jmp    a5b0 <free+0x40>
    a5d4:	66 90                	xchg   %ax,%ax
    a5d6:	66 90                	xchg   %ax,%ax
    a5d8:	66 90                	xchg   %ax,%ax
    a5da:	66 90                	xchg   %ax,%ax
    a5dc:	66 90                	xchg   %ax,%ax
    a5de:	66 90                	xchg   %ax,%ax

0000a5e0 <strReadInt.part.0>:
    a5e0:	89 c1                	mov    %eax,%ecx
    a5e2:	89 d0                	mov    %edx,%eax
    a5e4:	85 c9                	test   %ecx,%ecx
    a5e6:	78 70                	js     a658 <strReadInt.part.0+0x78>
    a5e8:	74 66                	je     a650 <strReadInt.part.0+0x70>
    a5ea:	55                   	push   %ebp
    a5eb:	89 e5                	mov    %esp,%ebp
    a5ed:	57                   	push   %edi
    a5ee:	56                   	push   %esi
    a5ef:	be cd cc cc cc       	mov    $0xcccccccd,%esi
    a5f4:	53                   	push   %ebx
    a5f5:	31 db                	xor    %ebx,%ebx
    a5f7:	83 ec 14             	sub    $0x14,%esp
    a5fa:	89 45 e0             	mov    %eax,-0x20(%ebp)
    a5fd:	8d 76 00             	lea    0x0(%esi),%esi
    a600:	89 c8                	mov    %ecx,%eax
    a602:	89 df                	mov    %ebx,%edi
    a604:	f7 e6                	mul    %esi
    a606:	c1 ea 03             	shr    $0x3,%edx
    a609:	8d 04 92             	lea    (%edx,%edx,4),%eax
    a60c:	01 c0                	add    %eax,%eax
    a60e:	29 c1                	sub    %eax,%ecx
    a610:	83 c1 30             	add    $0x30,%ecx
    a613:	88 4c 1d e8          	mov    %cl,-0x18(%ebp,%ebx,1)
    a617:	89 d1                	mov    %edx,%ecx
    a619:	83 c3 01             	add    $0x1,%ebx
    a61c:	85 d2                	test   %edx,%edx
    a61e:	75 e0                	jne    a600 <strReadInt.part.0+0x20>
    a620:	8b 45 e0             	mov    -0x20(%ebp),%eax
    a623:	8d 55 e8             	lea    -0x18(%ebp),%edx
    a626:	8d 34 38             	lea    (%eax,%edi,1),%esi
    a629:	8d 7c 3d e9          	lea    -0x17(%ebp,%edi,1),%edi
    a62d:	8d 76 00             	lea    0x0(%esi),%esi
    a630:	0f b6 0a             	movzbl (%edx),%ecx
    a633:	83 c2 01             	add    $0x1,%edx
    a636:	83 ee 01             	sub    $0x1,%esi
    a639:	88 4e 01             	mov    %cl,0x1(%esi)
    a63c:	39 d7                	cmp    %edx,%edi
    a63e:	75 f0                	jne    a630 <strReadInt.part.0+0x50>
    a640:	01 d8                	add    %ebx,%eax
    a642:	c6 00 00             	movb   $0x0,(%eax)
    a645:	83 c4 14             	add    $0x14,%esp
    a648:	5b                   	pop    %ebx
    a649:	5e                   	pop    %esi
    a64a:	5f                   	pop    %edi
    a64b:	5d                   	pop    %ebp
    a64c:	c3                   	ret    
    a64d:	8d 76 00             	lea    0x0(%esi),%esi
    a650:	c6 02 00             	movb   $0x0,(%edx)
    a653:	c3                   	ret    
    a654:	8d 74 26 00          	lea    0x0(%esi,%eiz,1),%esi
    a658:	c6 02 2d             	movb   $0x2d,(%edx)
    a65b:	83 c0 01             	add    $0x1,%eax
    a65e:	f7 d9                	neg    %ecx
    a660:	eb 88                	jmp    a5ea <strReadInt.part.0+0xa>
    a662:	8d b4 26 00 00 00 00 	lea    0x0(%esi,%eiz,1),%esi
    a669:	8d b4 26 00 00 00 00 	lea    0x0(%esi,%eiz,1),%esi

0000a670 <strlen>:
    a670:	55                   	push   %ebp
    a671:	31 c0                	xor    %eax,%eax
    a673:	89 e5                	mov    %esp,%ebp
    a675:	8b 55 08             	mov    0x8(%ebp),%edx
    a678:	80 3a 00             	cmpb   $0x0,(%edx)
    a67b:	74 0c                	je     a689 <strlen+0x19>
    a67d:	8d 76 00             	lea    0x0(%esi),%esi
    a680:	83 c0 01             	add    $0x1,%eax
    a683:	80 3c 02 00          	cmpb   $0x0,(%edx,%eax,1)
    a687:	75 f7                	jne    a680 <strlen+0x10>
    a689:	5d                   	pop    %ebp
    a68a:	c3                   	ret    
    a68b:	8d 74 26 00          	lea    0x0(%esi,%eiz,1),%esi
    a68f:	90                   	nop

0000a690 <strcpy>:
    a690:	55                   	push   %ebp
    a691:	89 e5                	mov    %esp,%ebp
    a693:	8b 4d 0c             	mov    0xc(%ebp),%ecx
    a696:	8b 45 08             	mov    0x8(%ebp),%eax
    a699:	0f b6 11             	movzbl (%ecx),%edx
    a69c:	84 d2                	test   %dl,%dl
    a69e:	74 0f                	je     a6af <strcpy+0x1f>
    a6a0:	83 c1 01             	add    $0x1,%ecx
    a6a3:	88 10                	mov    %dl,(%eax)
    a6a5:	83 c0 01             	add    $0x1,%eax
    a6a8:	0f b6 11             	movzbl (%ecx),%edx
    a6ab:	84 d2                	test   %dl,%dl
    a6ad:	75 f1                	jne    a6a0 <strcpy+0x10>
    a6af:	c6 00 00             	movb   $0x0,(%eax)
    a6b2:	5d                   	pop    %ebp
    a6b3:	c3                   	ret    
    a6b4:	8d b4 26 00 00 00 00 	lea    0x0(%esi,%eiz,1),%esi
    a6bb:	8d 74 26 00          	lea    0x0(%esi,%eiz,1),%esi
    a6bf:	90                   	nop

0000a6c0 <strReadInt>:
    a6c0:	55                   	push   %ebp
    a6c1:	89 e5                	mov    %esp,%ebp
    a6c3:	8b 45 08             	mov    0x8(%ebp),%eax
    a6c6:	8b 55 0c             	mov    0xc(%ebp),%edx
    a6c9:	85 c0                	test   %eax,%eax
    a6cb:	74 0b                	je     a6d8 <strReadInt+0x18>
    a6cd:	5d                   	pop    %ebp
    a6ce:	e9 0d ff ff ff       	jmp    a5e0 <strReadInt.part.0>
    a6d3:	8d 74 26 00          	lea    0x0(%esi,%eiz,1),%esi
    a6d7:	90                   	nop
    a6d8:	0f b7 05 ca b5 00 00 	movzwl 0xb5ca,%eax
    a6df:	66 89 02             	mov    %ax,(%edx)
    a6e2:	5d                   	pop    %ebp
    a6e3:	c3                   	ret    
    a6e4:	8d b4 26 00 00 00 00 	lea    0x0(%esi,%eiz,1),%esi
    a6eb:	8d 74 26 00          	lea    0x0(%esi,%eiz,1),%esi
    a6ef:	90                   	nop

0000a6f0 <strReadIntHex>:
    a6f0:	55                   	push   %ebp
    a6f1:	b9 30 00 00 00       	mov    $0x30,%ecx
    a6f6:	ba c4 b5 00 00       	mov    $0xb5c4,%edx
    a6fb:	89 e5                	mov    %esp,%ebp
    a6fd:	57                   	push   %edi
    a6fe:	56                   	push   %esi
    a6ff:	53                   	push   %ebx
    a700:	83 ec 20             	sub    $0x20,%esp
    a703:	8b 5d 08             	mov    0x8(%ebp),%ebx
    a706:	8b 45 0c             	mov    0xc(%ebp),%eax
    a709:	8d b4 26 00 00 00 00 	lea    0x0(%esi,%eiz,1),%esi
    a710:	83 c2 01             	add    $0x1,%edx
    a713:	88 08                	mov    %cl,(%eax)
    a715:	83 c0 01             	add    $0x1,%eax
    a718:	0f b6 0a             	movzbl (%edx),%ecx
    a71b:	84 c9                	test   %cl,%cl
    a71d:	75 f1                	jne    a710 <strReadIntHex+0x20>
    a71f:	85 db                	test   %ebx,%ebx
    a721:	74 5d                	je     a780 <strReadIntHex+0x90>
    a723:	c6 00 00             	movb   $0x0,(%eax)
    a726:	31 c9                	xor    %ecx,%ecx
    a728:	8d b4 26 00 00 00 00 	lea    0x0(%esi,%eiz,1),%esi
    a72f:	90                   	nop
    a730:	89 da                	mov    %ebx,%edx
    a732:	83 e2 0f             	and    $0xf,%edx
    a735:	80 fa 0a             	cmp    $0xa,%dl
    a738:	8d 7a 37             	lea    0x37(%edx),%edi
    a73b:	8d 72 30             	lea    0x30(%edx),%esi
    a73e:	0f 4d f7             	cmovge %edi,%esi
    a741:	89 cf                	mov    %ecx,%edi
    a743:	89 f2                	mov    %esi,%edx
    a745:	88 54 0d d4          	mov    %dl,-0x2c(%ebp,%ecx,1)
    a749:	83 c1 01             	add    $0x1,%ecx
    a74c:	c1 eb 04             	shr    $0x4,%ebx
    a74f:	75 df                	jne    a730 <strReadIntHex+0x40>
    a751:	8d 75 d4             	lea    -0x2c(%ebp),%esi
    a754:	8d 14 07             	lea    (%edi,%eax,1),%edx
    a757:	8d b4 26 00 00 00 00 	lea    0x0(%esi,%eiz,1),%esi
    a75e:	66 90                	xchg   %ax,%ax
    a760:	0f b6 1e             	movzbl (%esi),%ebx
    a763:	83 c6 01             	add    $0x1,%esi
    a766:	88 1a                	mov    %bl,(%edx)
    a768:	89 d3                	mov    %edx,%ebx
    a76a:	83 ea 01             	sub    $0x1,%edx
    a76d:	39 d8                	cmp    %ebx,%eax
    a76f:	75 ef                	jne    a760 <strReadIntHex+0x70>
    a771:	c6 04 08 00          	movb   $0x0,(%eax,%ecx,1)
    a775:	83 c4 20             	add    $0x20,%esp
    a778:	5b                   	pop    %ebx
    a779:	5e                   	pop    %esi
    a77a:	5f                   	pop    %edi
    a77b:	5d                   	pop    %ebp
    a77c:	c3                   	ret    
    a77d:	8d 76 00             	lea    0x0(%esi),%esi
    a780:	0f b7 15 ca b5 00 00 	movzwl 0xb5ca,%edx
    a787:	66 89 10             	mov    %dx,(%eax)
    a78a:	83 c4 20             	add    $0x20,%esp
    a78d:	5b                   	pop    %ebx
    a78e:	5e                   	pop    %esi
    a78f:	5f                   	pop    %edi
    a790:	5d                   	pop    %ebp
    a791:	c3                   	ret    
    a792:	8d b4 26 00 00 00 00 	lea    0x0(%esi,%eiz,1),%esi
    a799:	8d b4 26 00 00 00 00 	lea    0x0(%esi,%eiz,1),%esi

0000a7a0 <strAppend>:
    a7a0:	55                   	push   %ebp
    a7a1:	89 e5                	mov    %esp,%ebp
    a7a3:	8b 45 08             	mov    0x8(%ebp),%eax
    a7a6:	8b 4d 0c             	mov    0xc(%ebp),%ecx
    a7a9:	80 38 00             	cmpb   $0x0,(%eax)
    a7ac:	74 1a                	je     a7c8 <strAppend+0x28>
    a7ae:	66 90                	xchg   %ax,%ax
    a7b0:	83 c0 01             	add    $0x1,%eax
    a7b3:	80 38 00             	cmpb   $0x0,(%eax)
    a7b6:	75 f8                	jne    a7b0 <strAppend+0x10>
    a7b8:	0f b6 11             	movzbl (%ecx),%edx
    a7bb:	84 d2                	test   %dl,%dl
    a7bd:	74 10                	je     a7cf <strAppend+0x2f>
    a7bf:	90                   	nop
    a7c0:	88 10                	mov    %dl,(%eax)
    a7c2:	83 c0 01             	add    $0x1,%eax
    a7c5:	83 c1 01             	add    $0x1,%ecx
    a7c8:	0f b6 11             	movzbl (%ecx),%edx
    a7cb:	84 d2                	test   %dl,%dl
    a7cd:	75 f1                	jne    a7c0 <strAppend+0x20>
    a7cf:	c6 00 00             	movb   $0x0,(%eax)
    a7d2:	5d                   	pop    %ebp
    a7d3:	c3                   	ret    
    a7d4:	8d b4 26 00 00 00 00 	lea    0x0(%esi,%eiz,1),%esi
    a7db:	8d 74 26 00          	lea    0x0(%esi,%eiz,1),%esi
    a7df:	90                   	nop

0000a7e0 <strAppendFrom>:
    a7e0:	55                   	push   %ebp
    a7e1:	89 e5                	mov    %esp,%ebp
    a7e3:	53                   	push   %ebx
    a7e4:	8b 55 08             	mov    0x8(%ebp),%edx
    a7e7:	8b 5d 10             	mov    0x10(%ebp),%ebx
    a7ea:	8b 4d 0c             	mov    0xc(%ebp),%ecx
    a7ed:	8d 04 1a             	lea    (%edx,%ebx,1),%eax
    a7f0:	85 db                	test   %ebx,%ebx
    a7f2:	0f 4e c2             	cmovle %edx,%eax
    a7f5:	0f b6 11             	movzbl (%ecx),%edx
    a7f8:	84 d2                	test   %dl,%dl
    a7fa:	74 13                	je     a80f <strAppendFrom+0x2f>
    a7fc:	8d 74 26 00          	lea    0x0(%esi,%eiz,1),%esi
    a800:	83 c1 01             	add    $0x1,%ecx
    a803:	88 10                	mov    %dl,(%eax)
    a805:	83 c0 01             	add    $0x1,%eax
    a808:	0f b6 11             	movzbl (%ecx),%edx
    a80b:	84 d2                	test   %dl,%dl
    a80d:	75 f1                	jne    a800 <strAppendFrom+0x20>
    a80f:	c6 00 00             	movb   $0x0,(%eax)
    a812:	8b 5d fc             	mov    -0x4(%ebp),%ebx
    a815:	c9                   	leave  
    a816:	c3                   	ret    
    a817:	8d b4 26 00 00 00 00 	lea    0x0(%esi,%eiz,1),%esi
    a81e:	66 90                	xchg   %ax,%ax

0000a820 <sprintf>:
    a820:	55                   	push   %ebp
    a821:	89 e5                	mov    %esp,%ebp
    a823:	57                   	push   %edi
    a824:	56                   	push   %esi
    a825:	53                   	push   %ebx
    a826:	83 ec 18             	sub    $0x18,%esp
    a829:	8b 75 0c             	mov    0xc(%ebp),%esi
    a82c:	8b 5d 08             	mov    0x8(%ebp),%ebx
    a82f:	0f b6 06             	movzbl (%esi),%eax
    a832:	84 c0                	test   %al,%al
    a834:	74 7e                	je     a8b4 <sprintf+0x94>
    a836:	8d 4d 10             	lea    0x10(%ebp),%ecx
    a839:	eb 14                	jmp    a84f <sprintf+0x2f>
    a83b:	8d 74 26 00          	lea    0x0(%esi,%eiz,1),%esi
    a83f:	90                   	nop
    a840:	88 03                	mov    %al,(%ebx)
    a842:	83 c3 01             	add    $0x1,%ebx
    a845:	0f b6 46 01          	movzbl 0x1(%esi),%eax
    a849:	89 fe                	mov    %edi,%esi
    a84b:	84 c0                	test   %al,%al
    a84d:	74 65                	je     a8b4 <sprintf+0x94>
    a84f:	8d 7e 01             	lea    0x1(%esi),%edi
    a852:	3c 25                	cmp    $0x25,%al
    a854:	75 ea                	jne    a840 <sprintf+0x20>
    a856:	0f b6 46 01          	movzbl 0x1(%esi),%eax
    a85a:	3c 64                	cmp    $0x64,%al
    a85c:	0f 84 d6 00 00 00    	je     a938 <sprintf+0x118>
    a862:	3c 73                	cmp    $0x73,%al
    a864:	0f 84 96 00 00 00    	je     a900 <sprintf+0xe0>
    a86a:	89 fe                	mov    %edi,%esi
    a86c:	3c 62                	cmp    $0x62,%al
    a86e:	75 db                	jne    a84b <sprintf+0x2b>
    a870:	8b 01                	mov    (%ecx),%eax
    a872:	8d 77 01             	lea    0x1(%edi),%esi
    a875:	8d 51 04             	lea    0x4(%ecx),%edx
    a878:	85 c0                	test   %eax,%eax
    a87a:	74 44                	je     a8c0 <sprintf+0xa0>
    a87c:	c7 45 ea 74 72 75 65 	movl   $0x65757274,-0x16(%ebp)
    a883:	31 c9                	xor    %ecx,%ecx
    a885:	8d 45 ea             	lea    -0x16(%ebp),%eax
    a888:	66 89 4d ee          	mov    %cx,-0x12(%ebp)
    a88c:	b9 74 00 00 00       	mov    $0x74,%ecx
    a891:	8d b4 26 00 00 00 00 	lea    0x0(%esi,%eiz,1),%esi
    a898:	83 c0 01             	add    $0x1,%eax
    a89b:	88 0b                	mov    %cl,(%ebx)
    a89d:	83 c3 01             	add    $0x1,%ebx
    a8a0:	0f b6 08             	movzbl (%eax),%ecx
    a8a3:	84 c9                	test   %cl,%cl
    a8a5:	75 f1                	jne    a898 <sprintf+0x78>
    a8a7:	c6 03 00             	movb   $0x0,(%ebx)
    a8aa:	0f b6 47 01          	movzbl 0x1(%edi),%eax
    a8ae:	89 d1                	mov    %edx,%ecx
    a8b0:	84 c0                	test   %al,%al
    a8b2:	75 9b                	jne    a84f <sprintf+0x2f>
    a8b4:	c6 03 00             	movb   $0x0,(%ebx)
    a8b7:	83 c4 18             	add    $0x18,%esp
    a8ba:	5b                   	pop    %ebx
    a8bb:	5e                   	pop    %esi
    a8bc:	5f                   	pop    %edi
    a8bd:	5d                   	pop    %ebp
    a8be:	c3                   	ret    
    a8bf:	90                   	nop
    a8c0:	c7 45 ea 66 61 6c 73 	movl   $0x736c6166,-0x16(%ebp)
    a8c7:	b8 65 00 00 00       	mov    $0x65,%eax
    a8cc:	b9 66 00 00 00       	mov    $0x66,%ecx
    a8d1:	66 89 45 ee          	mov    %ax,-0x12(%ebp)
    a8d5:	8d 45 ea             	lea    -0x16(%ebp),%eax
    a8d8:	8d b4 26 00 00 00 00 	lea    0x0(%esi,%eiz,1),%esi
    a8df:	90                   	nop
    a8e0:	83 c0 01             	add    $0x1,%eax
    a8e3:	88 0b                	mov    %cl,(%ebx)
    a8e5:	83 c3 01             	add    $0x1,%ebx
    a8e8:	0f b6 08             	movzbl (%eax),%ecx
    a8eb:	84 c9                	test   %cl,%cl
    a8ed:	75 f1                	jne    a8e0 <sprintf+0xc0>
    a8ef:	c6 03 00             	movb   $0x0,(%ebx)
    a8f2:	89 d1                	mov    %edx,%ecx
    a8f4:	0f b6 47 01          	movzbl 0x1(%edi),%eax
    a8f8:	eb b6                	jmp    a8b0 <sprintf+0x90>
    a8fa:	8d b6 00 00 00 00    	lea    0x0(%esi),%esi
    a900:	89 c8                	mov    %ecx,%eax
    a902:	8d 57 01             	lea    0x1(%edi),%edx
    a905:	83 c1 04             	add    $0x4,%ecx
    a908:	8b 30                	mov    (%eax),%esi
    a90a:	0f b6 06             	movzbl (%esi),%eax
    a90d:	84 c0                	test   %al,%al
    a90f:	74 16                	je     a927 <sprintf+0x107>
    a911:	8d b4 26 00 00 00 00 	lea    0x0(%esi,%eiz,1),%esi
    a918:	83 c6 01             	add    $0x1,%esi
    a91b:	88 03                	mov    %al,(%ebx)
    a91d:	83 c3 01             	add    $0x1,%ebx
    a920:	0f b6 06             	movzbl (%esi),%eax
    a923:	84 c0                	test   %al,%al
    a925:	75 f1                	jne    a918 <sprintf+0xf8>
    a927:	c6 03 00             	movb   $0x0,(%ebx)
    a92a:	0f b6 47 01          	movzbl 0x1(%edi),%eax
    a92e:	89 d7                	mov    %edx,%edi
    a930:	e9 35 ff ff ff       	jmp    a86a <sprintf+0x4a>
    a935:	8d 76 00             	lea    0x0(%esi),%esi
    a938:	89 c8                	mov    %ecx,%eax
    a93a:	8d 7e 02             	lea    0x2(%esi),%edi
    a93d:	83 c1 04             	add    $0x4,%ecx
    a940:	8b 00                	mov    (%eax),%eax
    a942:	85 c0                	test   %eax,%eax
    a944:	74 42                	je     a988 <sprintf+0x168>
    a946:	8d 55 ea             	lea    -0x16(%ebp),%edx
    a949:	89 4d dc             	mov    %ecx,-0x24(%ebp)
    a94c:	89 55 e0             	mov    %edx,-0x20(%ebp)
    a94f:	e8 8c fc ff ff       	call   a5e0 <strReadInt.part.0>
    a954:	0f b6 45 ea          	movzbl -0x16(%ebp),%eax
    a958:	8b 55 e0             	mov    -0x20(%ebp),%edx
    a95b:	8b 4d dc             	mov    -0x24(%ebp),%ecx
    a95e:	84 c0                	test   %al,%al
    a960:	74 15                	je     a977 <sprintf+0x157>
    a962:	8d b6 00 00 00 00    	lea    0x0(%esi),%esi
    a968:	83 c2 01             	add    $0x1,%edx
    a96b:	88 03                	mov    %al,(%ebx)
    a96d:	83 c3 01             	add    $0x1,%ebx
    a970:	0f b6 02             	movzbl (%edx),%eax
    a973:	84 c0                	test   %al,%al
    a975:	75 f1                	jne    a968 <sprintf+0x148>
    a977:	c6 03 00             	movb   $0x0,(%ebx)
    a97a:	0f b6 46 02          	movzbl 0x2(%esi),%eax
    a97e:	e9 df fe ff ff       	jmp    a862 <sprintf+0x42>
    a983:	8d 74 26 00          	lea    0x0(%esi,%eiz,1),%esi
    a987:	90                   	nop
    a988:	0f b7 05 ca b5 00 00 	movzwl 0xb5ca,%eax
    a98f:	8d 55 ea             	lea    -0x16(%ebp),%edx
    a992:	66 89 45 ea          	mov    %ax,-0x16(%ebp)
    a996:	b8 30 00 00 00       	mov    $0x30,%eax
    a99b:	eb cb                	jmp    a968 <sprintf+0x148>
    a99d:	66 90                	xchg   %ax,%ax
    a99f:	90                   	nop

0000a9a0 <__udivdi3>:
    a9a0:	55                   	push   %ebp
    a9a1:	89 e5                	mov    %esp,%ebp
    a9a3:	57                   	push   %edi
    a9a4:	56                   	push   %esi
    a9a5:	53                   	push   %ebx
    a9a6:	83 ec 1c             	sub    $0x1c,%esp
    a9a9:	8b 7d 08             	mov    0x8(%ebp),%edi
    a9ac:	8b 45 14             	mov    0x14(%ebp),%eax
    a9af:	8b 75 0c             	mov    0xc(%ebp),%esi
    a9b2:	8b 5d 10             	mov    0x10(%ebp),%ebx
    a9b5:	89 7d e4             	mov    %edi,-0x1c(%ebp)
    a9b8:	85 c0                	test   %eax,%eax
    a9ba:	75 1c                	jne    a9d8 <__udivdi3+0x38>
    a9bc:	39 de                	cmp    %ebx,%esi
    a9be:	73 50                	jae    aa10 <__udivdi3+0x70>
    a9c0:	89 f8                	mov    %edi,%eax
    a9c2:	31 ff                	xor    %edi,%edi
    a9c4:	89 f2                	mov    %esi,%edx
    a9c6:	f7 f3                	div    %ebx
    a9c8:	89 fa                	mov    %edi,%edx
    a9ca:	83 c4 1c             	add    $0x1c,%esp
    a9cd:	5b                   	pop    %ebx
    a9ce:	5e                   	pop    %esi
    a9cf:	5f                   	pop    %edi
    a9d0:	5d                   	pop    %ebp
    a9d1:	c3                   	ret    
    a9d2:	8d b6 00 00 00 00    	lea    0x0(%esi),%esi
    a9d8:	39 c6                	cmp    %eax,%esi
    a9da:	73 14                	jae    a9f0 <__udivdi3+0x50>
    a9dc:	31 ff                	xor    %edi,%edi
    a9de:	31 c0                	xor    %eax,%eax
    a9e0:	89 fa                	mov    %edi,%edx
    a9e2:	83 c4 1c             	add    $0x1c,%esp
    a9e5:	5b                   	pop    %ebx
    a9e6:	5e                   	pop    %esi
    a9e7:	5f                   	pop    %edi
    a9e8:	5d                   	pop    %ebp
    a9e9:	c3                   	ret    
    a9ea:	8d b6 00 00 00 00    	lea    0x0(%esi),%esi
    a9f0:	0f bd f8             	bsr    %eax,%edi
    a9f3:	83 f7 1f             	xor    $0x1f,%edi
    a9f6:	75 48                	jne    aa40 <__udivdi3+0xa0>
    a9f8:	39 f0                	cmp    %esi,%eax
    a9fa:	72 07                	jb     aa03 <__udivdi3+0x63>
    a9fc:	31 c0                	xor    %eax,%eax
    a9fe:	39 5d e4             	cmp    %ebx,-0x1c(%ebp)
    aa01:	72 dd                	jb     a9e0 <__udivdi3+0x40>
    aa03:	b8 01 00 00 00       	mov    $0x1,%eax
    aa08:	eb d6                	jmp    a9e0 <__udivdi3+0x40>
    aa0a:	8d b6 00 00 00 00    	lea    0x0(%esi),%esi
    aa10:	89 d9                	mov    %ebx,%ecx
    aa12:	85 db                	test   %ebx,%ebx
    aa14:	75 0b                	jne    aa21 <__udivdi3+0x81>
    aa16:	b8 01 00 00 00       	mov    $0x1,%eax
    aa1b:	31 d2                	xor    %edx,%edx
    aa1d:	f7 f3                	div    %ebx
    aa1f:	89 c1                	mov    %eax,%ecx
    aa21:	31 d2                	xor    %edx,%edx
    aa23:	89 f0                	mov    %esi,%eax
    aa25:	f7 f1                	div    %ecx
    aa27:	89 c6                	mov    %eax,%esi
    aa29:	8b 45 e4             	mov    -0x1c(%ebp),%eax
    aa2c:	89 f7                	mov    %esi,%edi
    aa2e:	f7 f1                	div    %ecx
    aa30:	89 fa                	mov    %edi,%edx
    aa32:	83 c4 1c             	add    $0x1c,%esp
    aa35:	5b                   	pop    %ebx
    aa36:	5e                   	pop    %esi
    aa37:	5f                   	pop    %edi
    aa38:	5d                   	pop    %ebp
    aa39:	c3                   	ret    
    aa3a:	8d b6 00 00 00 00    	lea    0x0(%esi),%esi
    aa40:	89 f9                	mov    %edi,%ecx
    aa42:	ba 20 00 00 00       	mov    $0x20,%edx
    aa47:	29 fa                	sub    %edi,%edx
    aa49:	d3 e0                	shl    %cl,%eax
    aa4b:	89 45 e0             	mov    %eax,-0x20(%ebp)
    aa4e:	89 d1                	mov    %edx,%ecx
    aa50:	89 d8                	mov    %ebx,%eax
    aa52:	d3 e8                	shr    %cl,%eax
    aa54:	89 c1                	mov    %eax,%ecx
    aa56:	8b 45 e0             	mov    -0x20(%ebp),%eax
    aa59:	09 c1                	or     %eax,%ecx
    aa5b:	89 f0                	mov    %esi,%eax
    aa5d:	89 4d e0             	mov    %ecx,-0x20(%ebp)
    aa60:	89 f9                	mov    %edi,%ecx
    aa62:	d3 e3                	shl    %cl,%ebx
    aa64:	89 d1                	mov    %edx,%ecx
    aa66:	d3 e8                	shr    %cl,%eax
    aa68:	89 5d dc             	mov    %ebx,-0x24(%ebp)
    aa6b:	89 f9                	mov    %edi,%ecx
    aa6d:	8b 5d e4             	mov    -0x1c(%ebp),%ebx
    aa70:	d3 e6                	shl    %cl,%esi
    aa72:	89 d1                	mov    %edx,%ecx
    aa74:	d3 eb                	shr    %cl,%ebx
    aa76:	09 f3                	or     %esi,%ebx
    aa78:	89 c6                	mov    %eax,%esi
    aa7a:	89 f2                	mov    %esi,%edx
    aa7c:	89 d8                	mov    %ebx,%eax
    aa7e:	f7 75 e0             	divl   -0x20(%ebp)
    aa81:	89 d6                	mov    %edx,%esi
    aa83:	89 c3                	mov    %eax,%ebx
    aa85:	f7 65 dc             	mull   -0x24(%ebp)
    aa88:	89 55 e0             	mov    %edx,-0x20(%ebp)
    aa8b:	39 d6                	cmp    %edx,%esi
    aa8d:	72 21                	jb     aab0 <__udivdi3+0x110>
    aa8f:	8b 55 e4             	mov    -0x1c(%ebp),%edx
    aa92:	89 f9                	mov    %edi,%ecx
    aa94:	d3 e2                	shl    %cl,%edx
    aa96:	39 c2                	cmp    %eax,%edx
    aa98:	73 07                	jae    aaa1 <__udivdi3+0x101>
    aa9a:	8b 55 e0             	mov    -0x20(%ebp),%edx
    aa9d:	39 d6                	cmp    %edx,%esi
    aa9f:	74 0f                	je     aab0 <__udivdi3+0x110>
    aaa1:	89 d8                	mov    %ebx,%eax
    aaa3:	31 ff                	xor    %edi,%edi
    aaa5:	e9 36 ff ff ff       	jmp    a9e0 <__udivdi3+0x40>
    aaaa:	8d b6 00 00 00 00    	lea    0x0(%esi),%esi
    aab0:	8d 43 ff             	lea    -0x1(%ebx),%eax
    aab3:	31 ff                	xor    %edi,%edi
    aab5:	e9 26 ff ff ff       	jmp    a9e0 <__udivdi3+0x40>
    aaba:	66 90                	xchg   %ax,%ax
    aabc:	66 90                	xchg   %ax,%ax
    aabe:	66 90                	xchg   %ax,%ax

0000aac0 <__umoddi3>:
    aac0:	55                   	push   %ebp
    aac1:	89 e5                	mov    %esp,%ebp
    aac3:	57                   	push   %edi
    aac4:	56                   	push   %esi
    aac5:	53                   	push   %ebx
    aac6:	83 ec 2c             	sub    $0x2c,%esp
    aac9:	8b 5d 0c             	mov    0xc(%ebp),%ebx
    aacc:	8b 45 14             	mov    0x14(%ebp),%eax
    aacf:	8b 75 08             	mov    0x8(%ebp),%esi
    aad2:	8b 7d 10             	mov    0x10(%ebp),%edi
    aad5:	89 da                	mov    %ebx,%edx
    aad7:	85 c0                	test   %eax,%eax
    aad9:	75 15                	jne    aaf0 <__umoddi3+0x30>
    aadb:	39 fb                	cmp    %edi,%ebx
    aadd:	73 51                	jae    ab30 <__umoddi3+0x70>
    aadf:	89 f0                	mov    %esi,%eax
    aae1:	f7 f7                	div    %edi
    aae3:	89 d0                	mov    %edx,%eax
    aae5:	31 d2                	xor    %edx,%edx
    aae7:	83 c4 2c             	add    $0x2c,%esp
    aaea:	5b                   	pop    %ebx
    aaeb:	5e                   	pop    %esi
    aaec:	5f                   	pop    %edi
    aaed:	5d                   	pop    %ebp
    aaee:	c3                   	ret    
    aaef:	90                   	nop
    aaf0:	89 75 e0             	mov    %esi,-0x20(%ebp)
    aaf3:	39 c3                	cmp    %eax,%ebx
    aaf5:	73 11                	jae    ab08 <__umoddi3+0x48>
    aaf7:	89 f0                	mov    %esi,%eax
    aaf9:	83 c4 2c             	add    $0x2c,%esp
    aafc:	5b                   	pop    %ebx
    aafd:	5e                   	pop    %esi
    aafe:	5f                   	pop    %edi
    aaff:	5d                   	pop    %ebp
    ab00:	c3                   	ret    
    ab01:	8d b4 26 00 00 00 00 	lea    0x0(%esi,%eiz,1),%esi
    ab08:	0f bd c8             	bsr    %eax,%ecx
    ab0b:	83 f1 1f             	xor    $0x1f,%ecx
    ab0e:	89 4d e4             	mov    %ecx,-0x1c(%ebp)
    ab11:	75 3d                	jne    ab50 <__umoddi3+0x90>
    ab13:	39 d8                	cmp    %ebx,%eax
    ab15:	0f 82 cd 00 00 00    	jb     abe8 <__umoddi3+0x128>
    ab1b:	39 fe                	cmp    %edi,%esi
    ab1d:	0f 83 c5 00 00 00    	jae    abe8 <__umoddi3+0x128>
    ab23:	8b 45 e0             	mov    -0x20(%ebp),%eax
    ab26:	83 c4 2c             	add    $0x2c,%esp
    ab29:	5b                   	pop    %ebx
    ab2a:	5e                   	pop    %esi
    ab2b:	5f                   	pop    %edi
    ab2c:	5d                   	pop    %ebp
    ab2d:	c3                   	ret    
    ab2e:	66 90                	xchg   %ax,%ax
    ab30:	89 f9                	mov    %edi,%ecx
    ab32:	85 ff                	test   %edi,%edi
    ab34:	75 0b                	jne    ab41 <__umoddi3+0x81>
    ab36:	b8 01 00 00 00       	mov    $0x1,%eax
    ab3b:	31 d2                	xor    %edx,%edx
    ab3d:	f7 f7                	div    %edi
    ab3f:	89 c1                	mov    %eax,%ecx
    ab41:	89 d8                	mov    %ebx,%eax
    ab43:	31 d2                	xor    %edx,%edx
    ab45:	f7 f1                	div    %ecx
    ab47:	89 f0                	mov    %esi,%eax
    ab49:	f7 f1                	div    %ecx
    ab4b:	eb 96                	jmp    aae3 <__umoddi3+0x23>
    ab4d:	8d 76 00             	lea    0x0(%esi),%esi
    ab50:	8b 4d e4             	mov    -0x1c(%ebp),%ecx
    ab53:	ba 20 00 00 00       	mov    $0x20,%edx
    ab58:	29 ca                	sub    %ecx,%edx
    ab5a:	d3 e0                	shl    %cl,%eax
    ab5c:	89 45 dc             	mov    %eax,-0x24(%ebp)
    ab5f:	89 d1                	mov    %edx,%ecx
    ab61:	89 f8                	mov    %edi,%eax
    ab63:	d3 e8                	shr    %cl,%eax
    ab65:	89 55 e0             	mov    %edx,-0x20(%ebp)
    ab68:	0f b6 4d e4          	movzbl -0x1c(%ebp),%ecx
    ab6c:	89 c2                	mov    %eax,%edx
    ab6e:	8b 45 dc             	mov    -0x24(%ebp),%eax
    ab71:	d3 e7                	shl    %cl,%edi
    ab73:	09 c2                	or     %eax,%edx
    ab75:	8b 45 e0             	mov    -0x20(%ebp),%eax
    ab78:	89 7d d8             	mov    %edi,-0x28(%ebp)
    ab7b:	89 f7                	mov    %esi,%edi
    ab7d:	89 55 dc             	mov    %edx,-0x24(%ebp)
    ab80:	89 da                	mov    %ebx,%edx
    ab82:	89 c1                	mov    %eax,%ecx
    ab84:	d3 ea                	shr    %cl,%edx
    ab86:	0f b6 4d e4          	movzbl -0x1c(%ebp),%ecx
    ab8a:	d3 e3                	shl    %cl,%ebx
    ab8c:	89 c1                	mov    %eax,%ecx
    ab8e:	d3 ef                	shr    %cl,%edi
    ab90:	0f b6 4d e4          	movzbl -0x1c(%ebp),%ecx
    ab94:	89 f8                	mov    %edi,%eax
    ab96:	d3 e6                	shl    %cl,%esi
    ab98:	09 d8                	or     %ebx,%eax
    ab9a:	f7 75 dc             	divl   -0x24(%ebp)
    ab9d:	89 d3                	mov    %edx,%ebx
    ab9f:	89 75 d4             	mov    %esi,-0x2c(%ebp)
    aba2:	89 f7                	mov    %esi,%edi
    aba4:	f7 65 d8             	mull   -0x28(%ebp)
    aba7:	89 c6                	mov    %eax,%esi
    aba9:	89 d1                	mov    %edx,%ecx
    abab:	39 d3                	cmp    %edx,%ebx
    abad:	72 06                	jb     abb5 <__umoddi3+0xf5>
    abaf:	75 0e                	jne    abbf <__umoddi3+0xff>
    abb1:	39 c7                	cmp    %eax,%edi
    abb3:	73 0a                	jae    abbf <__umoddi3+0xff>
    abb5:	2b 45 d8             	sub    -0x28(%ebp),%eax
    abb8:	1b 55 dc             	sbb    -0x24(%ebp),%edx
    abbb:	89 d1                	mov    %edx,%ecx
    abbd:	89 c6                	mov    %eax,%esi
    abbf:	8b 45 d4             	mov    -0x2c(%ebp),%eax
    abc2:	8b 7d e4             	mov    -0x1c(%ebp),%edi
    abc5:	29 f0                	sub    %esi,%eax
    abc7:	19 cb                	sbb    %ecx,%ebx
    abc9:	0f b6 4d e0          	movzbl -0x20(%ebp),%ecx
    abcd:	89 da                	mov    %ebx,%edx
    abcf:	d3 e2                	shl    %cl,%edx
    abd1:	89 f9                	mov    %edi,%ecx
    abd3:	d3 e8                	shr    %cl,%eax
    abd5:	d3 eb                	shr    %cl,%ebx
    abd7:	09 d0                	or     %edx,%eax
    abd9:	89 da                	mov    %ebx,%edx
    abdb:	83 c4 2c             	add    $0x2c,%esp
    abde:	5b                   	pop    %ebx
    abdf:	5e                   	pop    %esi
    abe0:	5f                   	pop    %edi
    abe1:	5d                   	pop    %ebp
    abe2:	c3                   	ret    
    abe3:	8d 74 26 00          	lea    0x0(%esi,%eiz,1),%esi
    abe7:	90                   	nop
    abe8:	89 da                	mov    %ebx,%edx
    abea:	29 fe                	sub    %edi,%esi
    abec:	19 c2                	sbb    %eax,%edx
    abee:	89 75 e0             	mov    %esi,-0x20(%ebp)
    abf1:	e9 2d ff ff ff       	jmp    ab23 <__umoddi3+0x63>
    abf6:	66 90                	xchg   %ax,%ax
    abf8:	66 90                	xchg   %ax,%ax
    abfa:	66 90                	xchg   %ax,%ax
    abfc:	66 90                	xchg   %ax,%ax
    abfe:	66 90                	xchg   %ax,%ax

0000ac00 <__udivmoddi4>:
    ac00:	55                   	push   %ebp
    ac01:	89 e5                	mov    %esp,%ebp
    ac03:	57                   	push   %edi
    ac04:	56                   	push   %esi
    ac05:	53                   	push   %ebx
    ac06:	83 ec 2c             	sub    $0x2c,%esp
    ac09:	8b 45 08             	mov    0x8(%ebp),%eax
    ac0c:	8b 5d 0c             	mov    0xc(%ebp),%ebx
    ac0f:	8b 7d 14             	mov    0x14(%ebp),%edi
    ac12:	8b 75 10             	mov    0x10(%ebp),%esi
    ac15:	89 45 e0             	mov    %eax,-0x20(%ebp)
    ac18:	89 da                	mov    %ebx,%edx
    ac1a:	85 ff                	test   %edi,%edi
    ac1c:	75 3a                	jne    ac58 <__udivmoddi4+0x58>
    ac1e:	39 f3                	cmp    %esi,%ebx
    ac20:	0f 83 8a 00 00 00    	jae    acb0 <__udivmoddi4+0xb0>
    ac26:	c7 45 e4 00 00 00 00 	movl   $0x0,-0x1c(%ebp)
    ac2d:	f7 f6                	div    %esi
    ac2f:	8b 7d 18             	mov    0x18(%ebp),%edi
    ac32:	85 ff                	test   %edi,%edi
    ac34:	74 0c                	je     ac42 <__udivmoddi4+0x42>
    ac36:	8b 7d 18             	mov    0x18(%ebp),%edi
    ac39:	89 17                	mov    %edx,(%edi)
    ac3b:	c7 47 04 00 00 00 00 	movl   $0x0,0x4(%edi)
    ac42:	89 c1                	mov    %eax,%ecx
    ac44:	8b 55 e4             	mov    -0x1c(%ebp),%edx
    ac47:	89 c8                	mov    %ecx,%eax
    ac49:	83 c4 2c             	add    $0x2c,%esp
    ac4c:	5b                   	pop    %ebx
    ac4d:	5e                   	pop    %esi
    ac4e:	5f                   	pop    %edi
    ac4f:	5d                   	pop    %ebp
    ac50:	c3                   	ret    
    ac51:	8d b4 26 00 00 00 00 	lea    0x0(%esi,%eiz,1),%esi
    ac58:	39 fb                	cmp    %edi,%ebx
    ac5a:	73 24                	jae    ac80 <__udivmoddi4+0x80>
    ac5c:	8b 75 18             	mov    0x18(%ebp),%esi
    ac5f:	85 f6                	test   %esi,%esi
    ac61:	74 0b                	je     ac6e <__udivmoddi4+0x6e>
    ac63:	8b 45 18             	mov    0x18(%ebp),%eax
    ac66:	8b 7d e0             	mov    -0x20(%ebp),%edi
    ac69:	89 58 04             	mov    %ebx,0x4(%eax)
    ac6c:	89 38                	mov    %edi,(%eax)
    ac6e:	c7 45 e4 00 00 00 00 	movl   $0x0,-0x1c(%ebp)
    ac75:	31 c9                	xor    %ecx,%ecx
    ac77:	eb cb                	jmp    ac44 <__udivmoddi4+0x44>
    ac79:	8d b4 26 00 00 00 00 	lea    0x0(%esi,%eiz,1),%esi
    ac80:	0f bd cf             	bsr    %edi,%ecx
    ac83:	83 f1 1f             	xor    $0x1f,%ecx
    ac86:	89 4d e4             	mov    %ecx,-0x1c(%ebp)
    ac89:	75 55                	jne    ace0 <__udivmoddi4+0xe0>
    ac8b:	39 df                	cmp    %ebx,%edi
    ac8d:	0f 82 fd 00 00 00    	jb     ad90 <__udivmoddi4+0x190>
    ac93:	31 c9                	xor    %ecx,%ecx
    ac95:	39 75 e0             	cmp    %esi,-0x20(%ebp)
    ac98:	0f 83 f2 00 00 00    	jae    ad90 <__udivmoddi4+0x190>
    ac9e:	8b 5d 18             	mov    0x18(%ebp),%ebx
    aca1:	85 db                	test   %ebx,%ebx
    aca3:	74 9f                	je     ac44 <__udivmoddi4+0x44>
    aca5:	8b 7d 18             	mov    0x18(%ebp),%edi
    aca8:	89 07                	mov    %eax,(%edi)
    acaa:	89 57 04             	mov    %edx,0x4(%edi)
    acad:	eb 95                	jmp    ac44 <__udivmoddi4+0x44>
    acaf:	90                   	nop
    acb0:	89 f1                	mov    %esi,%ecx
    acb2:	85 f6                	test   %esi,%esi
    acb4:	75 0b                	jne    acc1 <__udivmoddi4+0xc1>
    acb6:	b8 01 00 00 00       	mov    $0x1,%eax
    acbb:	31 d2                	xor    %edx,%edx
    acbd:	f7 f6                	div    %esi
    acbf:	89 c1                	mov    %eax,%ecx
    acc1:	89 d8                	mov    %ebx,%eax
    acc3:	31 d2                	xor    %edx,%edx
    acc5:	f7 f1                	div    %ecx
    acc7:	89 c3                	mov    %eax,%ebx
    acc9:	8b 45 e0             	mov    -0x20(%ebp),%eax
    accc:	89 5d e4             	mov    %ebx,-0x1c(%ebp)
    accf:	f7 f1                	div    %ecx
    acd1:	e9 59 ff ff ff       	jmp    ac2f <__udivmoddi4+0x2f>
    acd6:	8d b4 26 00 00 00 00 	lea    0x0(%esi,%eiz,1),%esi
    acdd:	8d 76 00             	lea    0x0(%esi),%esi
    ace0:	8b 45 e4             	mov    -0x1c(%ebp),%eax
    ace3:	ba 20 00 00 00       	mov    $0x20,%edx
    ace8:	29 c2                	sub    %eax,%edx
    acea:	89 c1                	mov    %eax,%ecx
    acec:	89 f0                	mov    %esi,%eax
    acee:	d3 e7                	shl    %cl,%edi
    acf0:	89 d1                	mov    %edx,%ecx
    acf2:	89 55 d0             	mov    %edx,-0x30(%ebp)
    acf5:	d3 e8                	shr    %cl,%eax
    acf7:	0f b6 4d e4          	movzbl -0x1c(%ebp),%ecx
    acfb:	09 c7                	or     %eax,%edi
    acfd:	89 d8                	mov    %ebx,%eax
    acff:	d3 e6                	shl    %cl,%esi
    ad01:	89 d1                	mov    %edx,%ecx
    ad03:	d3 e8                	shr    %cl,%eax
    ad05:	0f b6 4d e4          	movzbl -0x1c(%ebp),%ecx
    ad09:	89 75 dc             	mov    %esi,-0x24(%ebp)
    ad0c:	89 d6                	mov    %edx,%esi
    ad0e:	8b 55 e0             	mov    -0x20(%ebp),%edx
    ad11:	d3 e3                	shl    %cl,%ebx
    ad13:	89 f1                	mov    %esi,%ecx
    ad15:	d3 ea                	shr    %cl,%edx
    ad17:	0f b6 4d e4          	movzbl -0x1c(%ebp),%ecx
    ad1b:	89 d6                	mov    %edx,%esi
    ad1d:	8b 55 e0             	mov    -0x20(%ebp),%edx
    ad20:	09 de                	or     %ebx,%esi
    ad22:	89 c3                	mov    %eax,%ebx
    ad24:	d3 e2                	shl    %cl,%edx
    ad26:	89 f0                	mov    %esi,%eax
    ad28:	89 55 d4             	mov    %edx,-0x2c(%ebp)
    ad2b:	89 da                	mov    %ebx,%edx
    ad2d:	f7 f7                	div    %edi
    ad2f:	89 d3                	mov    %edx,%ebx
    ad31:	89 c1                	mov    %eax,%ecx
    ad33:	89 c6                	mov    %eax,%esi
    ad35:	f7 65 dc             	mull   -0x24(%ebp)
    ad38:	89 45 e0             	mov    %eax,-0x20(%ebp)
    ad3b:	89 55 d8             	mov    %edx,-0x28(%ebp)
    ad3e:	39 d3                	cmp    %edx,%ebx
    ad40:	72 07                	jb     ad49 <__udivmoddi4+0x149>
    ad42:	75 13                	jne    ad57 <__udivmoddi4+0x157>
    ad44:	39 45 d4             	cmp    %eax,-0x2c(%ebp)
    ad47:	73 0e                	jae    ad57 <__udivmoddi4+0x157>
    ad49:	2b 45 dc             	sub    -0x24(%ebp),%eax
    ad4c:	19 fa                	sbb    %edi,%edx
    ad4e:	89 55 d8             	mov    %edx,-0x28(%ebp)
    ad51:	8d 71 ff             	lea    -0x1(%ecx),%esi
    ad54:	89 45 e0             	mov    %eax,-0x20(%ebp)
    ad57:	8b 45 18             	mov    0x18(%ebp),%eax
    ad5a:	85 c0                	test   %eax,%eax
    ad5c:	74 24                	je     ad82 <__udivmoddi4+0x182>
    ad5e:	0f b6 4d d0          	movzbl -0x30(%ebp),%ecx
    ad62:	8b 7d e4             	mov    -0x1c(%ebp),%edi
    ad65:	8b 45 d4             	mov    -0x2c(%ebp),%eax
    ad68:	2b 45 e0             	sub    -0x20(%ebp),%eax
    ad6b:	1b 5d d8             	sbb    -0x28(%ebp),%ebx
    ad6e:	89 da                	mov    %ebx,%edx
    ad70:	d3 e2                	shl    %cl,%edx
    ad72:	89 f9                	mov    %edi,%ecx
    ad74:	8b 7d 18             	mov    0x18(%ebp),%edi
    ad77:	d3 e8                	shr    %cl,%eax
    ad79:	d3 eb                	shr    %cl,%ebx
    ad7b:	09 d0                	or     %edx,%eax
    ad7d:	89 5f 04             	mov    %ebx,0x4(%edi)
    ad80:	89 07                	mov    %eax,(%edi)
    ad82:	c7 45 e4 00 00 00 00 	movl   $0x0,-0x1c(%ebp)
    ad89:	89 f1                	mov    %esi,%ecx
    ad8b:	e9 b4 fe ff ff       	jmp    ac44 <__udivmoddi4+0x44>
    ad90:	8b 45 e0             	mov    -0x20(%ebp),%eax
    ad93:	89 da                	mov    %ebx,%edx
    ad95:	b9 01 00 00 00       	mov    $0x1,%ecx
    ad9a:	29 f0                	sub    %esi,%eax
    ad9c:	19 fa                	sbb    %edi,%edx
    ad9e:	e9 fb fe ff ff       	jmp    ac9e <__udivmoddi4+0x9e>
